
Tmer_Output_PWN.elf:     file format elf32-littlearm

Sections:
Idx Name          Size      VMA       LMA       File off  Algn
  0 .isr_vector   000001c4  08000000  08000000  00010000  2**0
                  CONTENTS, ALLOC, LOAD, READONLY, DATA
  1 .text         00002d68  080001c4  080001c4  000101c4  2**2
                  CONTENTS, ALLOC, LOAD, READONLY, CODE
  2 .rodata       00000018  08002f2c  08002f2c  00012f2c  2**2
                  CONTENTS, ALLOC, LOAD, READONLY, DATA
  3 .ARM.extab    00000000  08002f44  08002f44  0002001c  2**0
                  CONTENTS
  4 .ARM          00000008  08002f44  08002f44  00012f44  2**2
                  CONTENTS, ALLOC, LOAD, READONLY, DATA
  5 .preinit_array 00000000  08002f4c  08002f4c  0002001c  2**0
                  CONTENTS, ALLOC, LOAD, DATA
  6 .init_array   00000004  08002f4c  08002f4c  00012f4c  2**2
                  CONTENTS, ALLOC, LOAD, DATA
  7 .fini_array   00000004  08002f50  08002f50  00012f50  2**2
                  CONTENTS, ALLOC, LOAD, DATA
  8 .data         0000001c  20000000  08002f54  00020000  2**2
                  CONTENTS, ALLOC, LOAD, DATA
  9 .bss          000000b0  2000001c  08002f70  0002001c  2**2
                  ALLOC
 10 ._user_heap_stack 00000604  200000cc  08002f70  000200cc  2**0
                  ALLOC
 11 .ARM.attributes 00000030  00000000  00000000  0002001c  2**0
                  CONTENTS, READONLY
 12 .comment      00000043  00000000  00000000  0002004c  2**0
                  CONTENTS, READONLY
 13 .debug_info   0000cd7b  00000000  00000000  0002008f  2**0
                  CONTENTS, READONLY, DEBUGGING, OCTETS
 14 .debug_abbrev 00001ac8  00000000  00000000  0002ce0a  2**0
                  CONTENTS, READONLY, DEBUGGING, OCTETS
 15 .debug_aranges 00000b90  00000000  00000000  0002e8d8  2**3
                  CONTENTS, READONLY, DEBUGGING, OCTETS
 16 .debug_rnglists 0000091d  00000000  00000000  0002f468  2**0
                  CONTENTS, READONLY, DEBUGGING, OCTETS
 17 .debug_macro  00021a9a  00000000  00000000  0002fd85  2**0
                  CONTENTS, READONLY, DEBUGGING, OCTETS
 18 .debug_line   0000e2c6  00000000  00000000  0005181f  2**0
                  CONTENTS, READONLY, DEBUGGING, OCTETS
 19 .debug_str    000d00df  00000000  00000000  0005fae5  2**0
                  CONTENTS, READONLY, DEBUGGING, OCTETS
 20 .debug_frame  0000310c  00000000  00000000  0012fbc4  2**2
                  CONTENTS, READONLY, DEBUGGING, OCTETS
 21 .debug_line_str 00000097  00000000  00000000  00132cd0  2**0
                  CONTENTS, READONLY, DEBUGGING, OCTETS

Disassembly of section .text:

080001c4 <__do_global_dtors_aux>:
 80001c4:	b510      	push	{r4, lr}
 80001c6:	4c05      	ldr	r4, [pc, #20]	; (80001dc <__do_global_dtors_aux+0x18>)
 80001c8:	7823      	ldrb	r3, [r4, #0]
 80001ca:	b933      	cbnz	r3, 80001da <__do_global_dtors_aux+0x16>
 80001cc:	4b04      	ldr	r3, [pc, #16]	; (80001e0 <__do_global_dtors_aux+0x1c>)
 80001ce:	b113      	cbz	r3, 80001d6 <__do_global_dtors_aux+0x12>
 80001d0:	4804      	ldr	r0, [pc, #16]	; (80001e4 <__do_global_dtors_aux+0x20>)
 80001d2:	f3af 8000 	nop.w
 80001d6:	2301      	movs	r3, #1
 80001d8:	7023      	strb	r3, [r4, #0]
 80001da:	bd10      	pop	{r4, pc}
 80001dc:	2000001c 	.word	0x2000001c
 80001e0:	00000000 	.word	0x00000000
 80001e4:	08002f14 	.word	0x08002f14

080001e8 <frame_dummy>:
 80001e8:	b508      	push	{r3, lr}
 80001ea:	4b03      	ldr	r3, [pc, #12]	; (80001f8 <frame_dummy+0x10>)
 80001ec:	b11b      	cbz	r3, 80001f6 <frame_dummy+0xe>
 80001ee:	4903      	ldr	r1, [pc, #12]	; (80001fc <frame_dummy+0x14>)
 80001f0:	4803      	ldr	r0, [pc, #12]	; (8000200 <frame_dummy+0x18>)
 80001f2:	f3af 8000 	nop.w
 80001f6:	bd08      	pop	{r3, pc}
 80001f8:	00000000 	.word	0x00000000
 80001fc:	20000020 	.word	0x20000020
 8000200:	08002f14 	.word	0x08002f14

08000204 <__aeabi_uldivmod>:
 8000204:	b953      	cbnz	r3, 800021c <__aeabi_uldivmod+0x18>
 8000206:	b94a      	cbnz	r2, 800021c <__aeabi_uldivmod+0x18>
 8000208:	2900      	cmp	r1, #0
 800020a:	bf08      	it	eq
 800020c:	2800      	cmpeq	r0, #0
 800020e:	bf1c      	itt	ne
 8000210:	f04f 31ff 	movne.w	r1, #4294967295
 8000214:	f04f 30ff 	movne.w	r0, #4294967295
 8000218:	f000 b970 	b.w	80004fc <__aeabi_idiv0>
 800021c:	f1ad 0c08 	sub.w	ip, sp, #8
 8000220:	e96d ce04 	strd	ip, lr, [sp, #-16]!
 8000224:	f000 f806 	bl	8000234 <__udivmoddi4>
 8000228:	f8dd e004 	ldr.w	lr, [sp, #4]
 800022c:	e9dd 2302 	ldrd	r2, r3, [sp, #8]
 8000230:	b004      	add	sp, #16
 8000232:	4770      	bx	lr

08000234 <__udivmoddi4>:
 8000234:	e92d 47f0 	stmdb	sp!, {r4, r5, r6, r7, r8, r9, sl, lr}
 8000238:	9e08      	ldr	r6, [sp, #32]
 800023a:	460d      	mov	r5, r1
 800023c:	4604      	mov	r4, r0
 800023e:	460f      	mov	r7, r1
 8000240:	2b00      	cmp	r3, #0
 8000242:	d14a      	bne.n	80002da <__udivmoddi4+0xa6>
 8000244:	428a      	cmp	r2, r1
 8000246:	4694      	mov	ip, r2
 8000248:	d965      	bls.n	8000316 <__udivmoddi4+0xe2>
 800024a:	fab2 f382 	clz	r3, r2
 800024e:	b143      	cbz	r3, 8000262 <__udivmoddi4+0x2e>
 8000250:	fa02 fc03 	lsl.w	ip, r2, r3
 8000254:	f1c3 0220 	rsb	r2, r3, #32
 8000258:	409f      	lsls	r7, r3
 800025a:	fa20 f202 	lsr.w	r2, r0, r2
 800025e:	4317      	orrs	r7, r2
 8000260:	409c      	lsls	r4, r3
 8000262:	ea4f 4e1c 	mov.w	lr, ip, lsr #16
 8000266:	fa1f f58c 	uxth.w	r5, ip
 800026a:	fbb7 f1fe 	udiv	r1, r7, lr
 800026e:	0c22      	lsrs	r2, r4, #16
 8000270:	fb0e 7711 	mls	r7, lr, r1, r7
 8000274:	ea42 4207 	orr.w	r2, r2, r7, lsl #16
 8000278:	fb01 f005 	mul.w	r0, r1, r5
 800027c:	4290      	cmp	r0, r2
 800027e:	d90a      	bls.n	8000296 <__udivmoddi4+0x62>
 8000280:	eb1c 0202 	adds.w	r2, ip, r2
 8000284:	f101 37ff 	add.w	r7, r1, #4294967295
 8000288:	f080 811c 	bcs.w	80004c4 <__udivmoddi4+0x290>
 800028c:	4290      	cmp	r0, r2
 800028e:	f240 8119 	bls.w	80004c4 <__udivmoddi4+0x290>
 8000292:	3902      	subs	r1, #2
 8000294:	4462      	add	r2, ip
 8000296:	1a12      	subs	r2, r2, r0
 8000298:	b2a4      	uxth	r4, r4
 800029a:	fbb2 f0fe 	udiv	r0, r2, lr
 800029e:	fb0e 2210 	mls	r2, lr, r0, r2
 80002a2:	ea44 4402 	orr.w	r4, r4, r2, lsl #16
 80002a6:	fb00 f505 	mul.w	r5, r0, r5
 80002aa:	42a5      	cmp	r5, r4
 80002ac:	d90a      	bls.n	80002c4 <__udivmoddi4+0x90>
 80002ae:	eb1c 0404 	adds.w	r4, ip, r4
 80002b2:	f100 32ff 	add.w	r2, r0, #4294967295
 80002b6:	f080 8107 	bcs.w	80004c8 <__udivmoddi4+0x294>
 80002ba:	42a5      	cmp	r5, r4
 80002bc:	f240 8104 	bls.w	80004c8 <__udivmoddi4+0x294>
 80002c0:	4464      	add	r4, ip
 80002c2:	3802      	subs	r0, #2
 80002c4:	ea40 4001 	orr.w	r0, r0, r1, lsl #16
 80002c8:	1b64      	subs	r4, r4, r5
 80002ca:	2100      	movs	r1, #0
 80002cc:	b11e      	cbz	r6, 80002d6 <__udivmoddi4+0xa2>
 80002ce:	40dc      	lsrs	r4, r3
 80002d0:	2300      	movs	r3, #0
 80002d2:	e9c6 4300 	strd	r4, r3, [r6]
 80002d6:	e8bd 87f0 	ldmia.w	sp!, {r4, r5, r6, r7, r8, r9, sl, pc}
 80002da:	428b      	cmp	r3, r1
 80002dc:	d908      	bls.n	80002f0 <__udivmoddi4+0xbc>
 80002de:	2e00      	cmp	r6, #0
 80002e0:	f000 80ed 	beq.w	80004be <__udivmoddi4+0x28a>
 80002e4:	2100      	movs	r1, #0
 80002e6:	e9c6 0500 	strd	r0, r5, [r6]
 80002ea:	4608      	mov	r0, r1
 80002ec:	e8bd 87f0 	ldmia.w	sp!, {r4, r5, r6, r7, r8, r9, sl, pc}
 80002f0:	fab3 f183 	clz	r1, r3
 80002f4:	2900      	cmp	r1, #0
 80002f6:	d149      	bne.n	800038c <__udivmoddi4+0x158>
 80002f8:	42ab      	cmp	r3, r5
 80002fa:	d302      	bcc.n	8000302 <__udivmoddi4+0xce>
 80002fc:	4282      	cmp	r2, r0
 80002fe:	f200 80f8 	bhi.w	80004f2 <__udivmoddi4+0x2be>
 8000302:	1a84      	subs	r4, r0, r2
 8000304:	eb65 0203 	sbc.w	r2, r5, r3
 8000308:	2001      	movs	r0, #1
 800030a:	4617      	mov	r7, r2
 800030c:	2e00      	cmp	r6, #0
 800030e:	d0e2      	beq.n	80002d6 <__udivmoddi4+0xa2>
 8000310:	e9c6 4700 	strd	r4, r7, [r6]
 8000314:	e7df      	b.n	80002d6 <__udivmoddi4+0xa2>
 8000316:	b902      	cbnz	r2, 800031a <__udivmoddi4+0xe6>
 8000318:	deff      	udf	#255	; 0xff
 800031a:	fab2 f382 	clz	r3, r2
 800031e:	2b00      	cmp	r3, #0
 8000320:	f040 8090 	bne.w	8000444 <__udivmoddi4+0x210>
 8000324:	1a8a      	subs	r2, r1, r2
 8000326:	ea4f 471c 	mov.w	r7, ip, lsr #16
 800032a:	fa1f fe8c 	uxth.w	lr, ip
 800032e:	2101      	movs	r1, #1
 8000330:	fbb2 f5f7 	udiv	r5, r2, r7
 8000334:	fb07 2015 	mls	r0, r7, r5, r2
 8000338:	0c22      	lsrs	r2, r4, #16
 800033a:	ea42 4200 	orr.w	r2, r2, r0, lsl #16
 800033e:	fb0e f005 	mul.w	r0, lr, r5
 8000342:	4290      	cmp	r0, r2
 8000344:	d908      	bls.n	8000358 <__udivmoddi4+0x124>
 8000346:	eb1c 0202 	adds.w	r2, ip, r2
 800034a:	f105 38ff 	add.w	r8, r5, #4294967295
 800034e:	d202      	bcs.n	8000356 <__udivmoddi4+0x122>
 8000350:	4290      	cmp	r0, r2
 8000352:	f200 80cb 	bhi.w	80004ec <__udivmoddi4+0x2b8>
 8000356:	4645      	mov	r5, r8
 8000358:	1a12      	subs	r2, r2, r0
 800035a:	b2a4      	uxth	r4, r4
 800035c:	fbb2 f0f7 	udiv	r0, r2, r7
 8000360:	fb07 2210 	mls	r2, r7, r0, r2
 8000364:	ea44 4402 	orr.w	r4, r4, r2, lsl #16
 8000368:	fb0e fe00 	mul.w	lr, lr, r0
 800036c:	45a6      	cmp	lr, r4
 800036e:	d908      	bls.n	8000382 <__udivmoddi4+0x14e>
 8000370:	eb1c 0404 	adds.w	r4, ip, r4
 8000374:	f100 32ff 	add.w	r2, r0, #4294967295
 8000378:	d202      	bcs.n	8000380 <__udivmoddi4+0x14c>
 800037a:	45a6      	cmp	lr, r4
 800037c:	f200 80bb 	bhi.w	80004f6 <__udivmoddi4+0x2c2>
 8000380:	4610      	mov	r0, r2
 8000382:	eba4 040e 	sub.w	r4, r4, lr
 8000386:	ea40 4005 	orr.w	r0, r0, r5, lsl #16
 800038a:	e79f      	b.n	80002cc <__udivmoddi4+0x98>
 800038c:	f1c1 0720 	rsb	r7, r1, #32
 8000390:	408b      	lsls	r3, r1
 8000392:	fa22 fc07 	lsr.w	ip, r2, r7
 8000396:	ea4c 0c03 	orr.w	ip, ip, r3
 800039a:	fa05 f401 	lsl.w	r4, r5, r1
 800039e:	fa20 f307 	lsr.w	r3, r0, r7
 80003a2:	40fd      	lsrs	r5, r7
 80003a4:	ea4f 491c 	mov.w	r9, ip, lsr #16
 80003a8:	4323      	orrs	r3, r4
 80003aa:	fbb5 f8f9 	udiv	r8, r5, r9
 80003ae:	fa1f fe8c 	uxth.w	lr, ip
 80003b2:	fb09 5518 	mls	r5, r9, r8, r5
 80003b6:	0c1c      	lsrs	r4, r3, #16
 80003b8:	ea44 4405 	orr.w	r4, r4, r5, lsl #16
 80003bc:	fb08 f50e 	mul.w	r5, r8, lr
 80003c0:	42a5      	cmp	r5, r4
 80003c2:	fa02 f201 	lsl.w	r2, r2, r1
 80003c6:	fa00 f001 	lsl.w	r0, r0, r1
 80003ca:	d90b      	bls.n	80003e4 <__udivmoddi4+0x1b0>
 80003cc:	eb1c 0404 	adds.w	r4, ip, r4
 80003d0:	f108 3aff 	add.w	sl, r8, #4294967295
 80003d4:	f080 8088 	bcs.w	80004e8 <__udivmoddi4+0x2b4>
 80003d8:	42a5      	cmp	r5, r4
 80003da:	f240 8085 	bls.w	80004e8 <__udivmoddi4+0x2b4>
 80003de:	f1a8 0802 	sub.w	r8, r8, #2
 80003e2:	4464      	add	r4, ip
 80003e4:	1b64      	subs	r4, r4, r5
 80003e6:	b29d      	uxth	r5, r3
 80003e8:	fbb4 f3f9 	udiv	r3, r4, r9
 80003ec:	fb09 4413 	mls	r4, r9, r3, r4
 80003f0:	ea45 4404 	orr.w	r4, r5, r4, lsl #16
 80003f4:	fb03 fe0e 	mul.w	lr, r3, lr
 80003f8:	45a6      	cmp	lr, r4
 80003fa:	d908      	bls.n	800040e <__udivmoddi4+0x1da>
 80003fc:	eb1c 0404 	adds.w	r4, ip, r4
 8000400:	f103 35ff 	add.w	r5, r3, #4294967295
 8000404:	d26c      	bcs.n	80004e0 <__udivmoddi4+0x2ac>
 8000406:	45a6      	cmp	lr, r4
 8000408:	d96a      	bls.n	80004e0 <__udivmoddi4+0x2ac>
 800040a:	3b02      	subs	r3, #2
 800040c:	4464      	add	r4, ip
 800040e:	ea43 4308 	orr.w	r3, r3, r8, lsl #16
 8000412:	fba3 9502 	umull	r9, r5, r3, r2
 8000416:	eba4 040e 	sub.w	r4, r4, lr
 800041a:	42ac      	cmp	r4, r5
 800041c:	46c8      	mov	r8, r9
 800041e:	46ae      	mov	lr, r5
 8000420:	d356      	bcc.n	80004d0 <__udivmoddi4+0x29c>
 8000422:	d053      	beq.n	80004cc <__udivmoddi4+0x298>
 8000424:	b156      	cbz	r6, 800043c <__udivmoddi4+0x208>
 8000426:	ebb0 0208 	subs.w	r2, r0, r8
 800042a:	eb64 040e 	sbc.w	r4, r4, lr
 800042e:	fa04 f707 	lsl.w	r7, r4, r7
 8000432:	40ca      	lsrs	r2, r1
 8000434:	40cc      	lsrs	r4, r1
 8000436:	4317      	orrs	r7, r2
 8000438:	e9c6 7400 	strd	r7, r4, [r6]
 800043c:	4618      	mov	r0, r3
 800043e:	2100      	movs	r1, #0
 8000440:	e8bd 87f0 	ldmia.w	sp!, {r4, r5, r6, r7, r8, r9, sl, pc}
 8000444:	f1c3 0120 	rsb	r1, r3, #32
 8000448:	fa02 fc03 	lsl.w	ip, r2, r3
 800044c:	fa20 f201 	lsr.w	r2, r0, r1
 8000450:	fa25 f101 	lsr.w	r1, r5, r1
 8000454:	409d      	lsls	r5, r3
 8000456:	432a      	orrs	r2, r5
 8000458:	ea4f 471c 	mov.w	r7, ip, lsr #16
 800045c:	fa1f fe8c 	uxth.w	lr, ip
 8000460:	fbb1 f0f7 	udiv	r0, r1, r7
 8000464:	fb07 1510 	mls	r5, r7, r0, r1
 8000468:	0c11      	lsrs	r1, r2, #16
 800046a:	ea41 4105 	orr.w	r1, r1, r5, lsl #16
 800046e:	fb00 f50e 	mul.w	r5, r0, lr
 8000472:	428d      	cmp	r5, r1
 8000474:	fa04 f403 	lsl.w	r4, r4, r3
 8000478:	d908      	bls.n	800048c <__udivmoddi4+0x258>
 800047a:	eb1c 0101 	adds.w	r1, ip, r1
 800047e:	f100 38ff 	add.w	r8, r0, #4294967295
 8000482:	d22f      	bcs.n	80004e4 <__udivmoddi4+0x2b0>
 8000484:	428d      	cmp	r5, r1
 8000486:	d92d      	bls.n	80004e4 <__udivmoddi4+0x2b0>
 8000488:	3802      	subs	r0, #2
 800048a:	4461      	add	r1, ip
 800048c:	1b49      	subs	r1, r1, r5
 800048e:	b292      	uxth	r2, r2
 8000490:	fbb1 f5f7 	udiv	r5, r1, r7
 8000494:	fb07 1115 	mls	r1, r7, r5, r1
 8000498:	ea42 4201 	orr.w	r2, r2, r1, lsl #16
 800049c:	fb05 f10e 	mul.w	r1, r5, lr
 80004a0:	4291      	cmp	r1, r2
 80004a2:	d908      	bls.n	80004b6 <__udivmoddi4+0x282>
 80004a4:	eb1c 0202 	adds.w	r2, ip, r2
 80004a8:	f105 38ff 	add.w	r8, r5, #4294967295
 80004ac:	d216      	bcs.n	80004dc <__udivmoddi4+0x2a8>
 80004ae:	4291      	cmp	r1, r2
 80004b0:	d914      	bls.n	80004dc <__udivmoddi4+0x2a8>
 80004b2:	3d02      	subs	r5, #2
 80004b4:	4462      	add	r2, ip
 80004b6:	1a52      	subs	r2, r2, r1
 80004b8:	ea45 4100 	orr.w	r1, r5, r0, lsl #16
 80004bc:	e738      	b.n	8000330 <__udivmoddi4+0xfc>
 80004be:	4631      	mov	r1, r6
 80004c0:	4630      	mov	r0, r6
 80004c2:	e708      	b.n	80002d6 <__udivmoddi4+0xa2>
 80004c4:	4639      	mov	r1, r7
 80004c6:	e6e6      	b.n	8000296 <__udivmoddi4+0x62>
 80004c8:	4610      	mov	r0, r2
 80004ca:	e6fb      	b.n	80002c4 <__udivmoddi4+0x90>
 80004cc:	4548      	cmp	r0, r9
 80004ce:	d2a9      	bcs.n	8000424 <__udivmoddi4+0x1f0>
 80004d0:	ebb9 0802 	subs.w	r8, r9, r2
 80004d4:	eb65 0e0c 	sbc.w	lr, r5, ip
 80004d8:	3b01      	subs	r3, #1
 80004da:	e7a3      	b.n	8000424 <__udivmoddi4+0x1f0>
 80004dc:	4645      	mov	r5, r8
 80004de:	e7ea      	b.n	80004b6 <__udivmoddi4+0x282>
 80004e0:	462b      	mov	r3, r5
 80004e2:	e794      	b.n	800040e <__udivmoddi4+0x1da>
 80004e4:	4640      	mov	r0, r8
 80004e6:	e7d1      	b.n	800048c <__udivmoddi4+0x258>
 80004e8:	46d0      	mov	r8, sl
 80004ea:	e77b      	b.n	80003e4 <__udivmoddi4+0x1b0>
 80004ec:	3d02      	subs	r5, #2
 80004ee:	4462      	add	r2, ip
 80004f0:	e732      	b.n	8000358 <__udivmoddi4+0x124>
 80004f2:	4608      	mov	r0, r1
 80004f4:	e70a      	b.n	800030c <__udivmoddi4+0xd8>
 80004f6:	4464      	add	r4, ip
 80004f8:	3802      	subs	r0, #2
 80004fa:	e742      	b.n	8000382 <__udivmoddi4+0x14e>

080004fc <__aeabi_idiv0>:
 80004fc:	4770      	bx	lr
 80004fe:	bf00      	nop

08000500 <main>:
uint32_t pulse2_value = 12500; // 1000 Hz
uint32_t pulse3_value = 6250; //  2000 Hz
uint32_t pulse4_value = 3125; //  4000 Hz

int main(void)
{
 8000500:	b580      	push	{r7, lr}
 8000502:	af00      	add	r7, sp, #0
	HAL_Init();
 8000504:	f000 fb18 	bl	8000b38 <HAL_Init>

	SystemClock_Config_HSE(SYS_CLOCK_FREQ_50_MHZ);
 8000508:	2032      	movs	r0, #50	; 0x32
 800050a:	f000 f82d 	bl	8000568 <SystemClock_Config_HSE>

	GPIO_Init();
 800050e:	f000 f8c9 	bl	80006a4 <GPIO_Init>

	UART2_Init();
 8000512:	f000 f8eb 	bl	80006ec <UART2_Init>

	TIMER2_Init();
 8000516:	f000 f90f 	bl	8000738 <TIMER2_Init>

	if(HAL_TIM_PWM_Start(&htimer2, TIM_CHANNEL_1)!= HAL_OK)
 800051a:	2100      	movs	r1, #0
 800051c:	4811      	ldr	r0, [pc, #68]	; (8000564 <main+0x64>)
 800051e:	f001 fc85 	bl	8001e2c <HAL_TIM_PWM_Start>
 8000522:	4603      	mov	r3, r0
 8000524:	2b00      	cmp	r3, #0
 8000526:	d001      	beq.n	800052c <main+0x2c>
	{
		Error_handler();
 8000528:	f000 f9e8 	bl	80008fc <Error_handler>
	}
	if(HAL_TIM_PWM_Start(&htimer2, TIM_CHANNEL_2)!= HAL_OK)
 800052c:	2104      	movs	r1, #4
 800052e:	480d      	ldr	r0, [pc, #52]	; (8000564 <main+0x64>)
 8000530:	f001 fc7c 	bl	8001e2c <HAL_TIM_PWM_Start>
 8000534:	4603      	mov	r3, r0
 8000536:	2b00      	cmp	r3, #0
 8000538:	d001      	beq.n	800053e <main+0x3e>
	{
			Error_handler();
 800053a:	f000 f9df 	bl	80008fc <Error_handler>
	}
	if(HAL_TIM_PWM_Start(&htimer2, TIM_CHANNEL_3)!= HAL_OK)
 800053e:	2108      	movs	r1, #8
 8000540:	4808      	ldr	r0, [pc, #32]	; (8000564 <main+0x64>)
 8000542:	f001 fc73 	bl	8001e2c <HAL_TIM_PWM_Start>
 8000546:	4603      	mov	r3, r0
 8000548:	2b00      	cmp	r3, #0
 800054a:	d001      	beq.n	8000550 <main+0x50>
	{
		Error_handler();
 800054c:	f000 f9d6 	bl	80008fc <Error_handler>
	}
	if(HAL_TIM_PWM_Start(&htimer2, TIM_CHANNEL_4)!= HAL_OK)
 8000550:	210c      	movs	r1, #12
 8000552:	4804      	ldr	r0, [pc, #16]	; (8000564 <main+0x64>)
 8000554:	f001 fc6a 	bl	8001e2c <HAL_TIM_PWM_Start>
 8000558:	4603      	mov	r3, r0
 800055a:	2b00      	cmp	r3, #0
 800055c:	d001      	beq.n	8000562 <main+0x62>
	{
		Error_handler();
 800055e:	f000 f9cd 	bl	80008fc <Error_handler>
	}
	while(1)
 8000562:	e7fe      	b.n	8000562 <main+0x62>
 8000564:	20000038 	.word	0x20000038

08000568 <SystemClock_Config_HSE>:
}



void SystemClock_Config_HSE(uint8_t clock_freq)
{
 8000568:	b580      	push	{r7, lr}
 800056a:	b096      	sub	sp, #88	; 0x58
 800056c:	af00      	add	r7, sp, #0
 800056e:	4603      	mov	r3, r0
 8000570:	71fb      	strb	r3, [r7, #7]
	RCC_OscInitTypeDef Osc_Init;
	RCC_ClkInitTypeDef Clock_Init;
    uint8_t flash_latency=0;
 8000572:	2300      	movs	r3, #0
 8000574:	f887 3057 	strb.w	r3, [r7, #87]	; 0x57

	Osc_Init.OscillatorType = RCC_OSCILLATORTYPE_HSE | RCC_OSCILLATORTYPE_LSE | RCC_OSCILLATORTYPE_HSI ;
 8000578:	2307      	movs	r3, #7
 800057a:	61fb      	str	r3, [r7, #28]
	Osc_Init.HSEState = RCC_HSE_ON;
 800057c:	f44f 3380 	mov.w	r3, #65536	; 0x10000
 8000580:	623b      	str	r3, [r7, #32]
	Osc_Init.LSEState = RCC_LSE_ON;
 8000582:	2301      	movs	r3, #1
 8000584:	627b      	str	r3, [r7, #36]	; 0x24
	Osc_Init.HSIState = RCC_HSI_ON;
 8000586:	2301      	movs	r3, #1
 8000588:	62bb      	str	r3, [r7, #40]	; 0x28
	Osc_Init.PLL.PLLState = RCC_PLL_ON;
 800058a:	2302      	movs	r3, #2
 800058c:	637b      	str	r3, [r7, #52]	; 0x34
	Osc_Init.PLL.PLLSource = RCC_PLLSOURCE_HSE;
 800058e:	f44f 0380 	mov.w	r3, #4194304	; 0x400000
 8000592:	63bb      	str	r3, [r7, #56]	; 0x38

	switch(clock_freq)
 8000594:	79fb      	ldrb	r3, [r7, #7]
 8000596:	2b78      	cmp	r3, #120	; 0x78
 8000598:	d038      	beq.n	800060c <SystemClock_Config_HSE+0xa4>
 800059a:	2b78      	cmp	r3, #120	; 0x78
 800059c:	dc7c      	bgt.n	8000698 <SystemClock_Config_HSE+0x130>
 800059e:	2b32      	cmp	r3, #50	; 0x32
 80005a0:	d002      	beq.n	80005a8 <SystemClock_Config_HSE+0x40>
 80005a2:	2b54      	cmp	r3, #84	; 0x54
 80005a4:	d019      	beq.n	80005da <SystemClock_Config_HSE+0x72>
		  Clock_Init.APB2CLKDivider = RCC_HCLK_DIV2;
          flash_latency = 3;
	     break;

	  default:
	   return ;
 80005a6:	e077      	b.n	8000698 <SystemClock_Config_HSE+0x130>
		  Osc_Init.PLL.PLLM = 4;
 80005a8:	2304      	movs	r3, #4
 80005aa:	63fb      	str	r3, [r7, #60]	; 0x3c
		  Osc_Init.PLL.PLLN = 50;
 80005ac:	2332      	movs	r3, #50	; 0x32
 80005ae:	643b      	str	r3, [r7, #64]	; 0x40
		  Osc_Init.PLL.PLLP = RCC_PLLP_DIV2;
 80005b0:	2302      	movs	r3, #2
 80005b2:	647b      	str	r3, [r7, #68]	; 0x44
		  Osc_Init.PLL.PLLQ = 2;
 80005b4:	2302      	movs	r3, #2
 80005b6:	64bb      	str	r3, [r7, #72]	; 0x48
		  Osc_Init.PLL.PLLR = 2;
 80005b8:	2302      	movs	r3, #2
 80005ba:	64fb      	str	r3, [r7, #76]	; 0x4c
		  Clock_Init.ClockType = RCC_CLOCKTYPE_HCLK|RCC_CLOCKTYPE_SYSCLK
 80005bc:	230f      	movs	r3, #15
 80005be:	60bb      	str	r3, [r7, #8]
		  Clock_Init.SYSCLKSource = RCC_SYSCLKSOURCE_PLLCLK;
 80005c0:	2302      	movs	r3, #2
 80005c2:	60fb      	str	r3, [r7, #12]
		  Clock_Init.AHBCLKDivider = RCC_SYSCLK_DIV1;
 80005c4:	2300      	movs	r3, #0
 80005c6:	613b      	str	r3, [r7, #16]
		  Clock_Init.APB1CLKDivider = RCC_HCLK_DIV2;
 80005c8:	f44f 5380 	mov.w	r3, #4096	; 0x1000
 80005cc:	617b      	str	r3, [r7, #20]
		  Clock_Init.APB2CLKDivider = RCC_HCLK_DIV1;
 80005ce:	2300      	movs	r3, #0
 80005d0:	61bb      	str	r3, [r7, #24]
          flash_latency = 1;
 80005d2:	2301      	movs	r3, #1
 80005d4:	f887 3057 	strb.w	r3, [r7, #87]	; 0x57
	     break;
 80005d8:	e032      	b.n	8000640 <SystemClock_Config_HSE+0xd8>
		  Osc_Init.PLL.PLLM = 4;
 80005da:	2304      	movs	r3, #4
 80005dc:	63fb      	str	r3, [r7, #60]	; 0x3c
		  Osc_Init.PLL.PLLN = 84;
 80005de:	2354      	movs	r3, #84	; 0x54
 80005e0:	643b      	str	r3, [r7, #64]	; 0x40
		  Osc_Init.PLL.PLLP = RCC_PLLP_DIV2;
 80005e2:	2302      	movs	r3, #2
 80005e4:	647b      	str	r3, [r7, #68]	; 0x44
		  Osc_Init.PLL.PLLQ = 2;
 80005e6:	2302      	movs	r3, #2
 80005e8:	64bb      	str	r3, [r7, #72]	; 0x48
		  Osc_Init.PLL.PLLR = 2;
 80005ea:	2302      	movs	r3, #2
 80005ec:	64fb      	str	r3, [r7, #76]	; 0x4c
		  Clock_Init.ClockType = RCC_CLOCKTYPE_HCLK|RCC_CLOCKTYPE_SYSCLK
 80005ee:	230f      	movs	r3, #15
 80005f0:	60bb      	str	r3, [r7, #8]
		  Clock_Init.SYSCLKSource = RCC_SYSCLKSOURCE_PLLCLK;
 80005f2:	2302      	movs	r3, #2
 80005f4:	60fb      	str	r3, [r7, #12]
		  Clock_Init.AHBCLKDivider = RCC_SYSCLK_DIV1;
 80005f6:	2300      	movs	r3, #0
 80005f8:	613b      	str	r3, [r7, #16]
		  Clock_Init.APB1CLKDivider = RCC_HCLK_DIV2;
 80005fa:	f44f 5380 	mov.w	r3, #4096	; 0x1000
 80005fe:	617b      	str	r3, [r7, #20]
		  Clock_Init.APB2CLKDivider = RCC_HCLK_DIV1;
 8000600:	2300      	movs	r3, #0
 8000602:	61bb      	str	r3, [r7, #24]
          flash_latency = 2;
 8000604:	2302      	movs	r3, #2
 8000606:	f887 3057 	strb.w	r3, [r7, #87]	; 0x57
	     break;
 800060a:	e019      	b.n	8000640 <SystemClock_Config_HSE+0xd8>
		  Osc_Init.PLL.PLLM = 4;
 800060c:	2304      	movs	r3, #4
 800060e:	63fb      	str	r3, [r7, #60]	; 0x3c
		  Osc_Init.PLL.PLLN = 120;
 8000610:	2378      	movs	r3, #120	; 0x78
 8000612:	643b      	str	r3, [r7, #64]	; 0x40
		  Osc_Init.PLL.PLLP = RCC_PLLP_DIV2;
 8000614:	2302      	movs	r3, #2
 8000616:	647b      	str	r3, [r7, #68]	; 0x44
		  Osc_Init.PLL.PLLQ = 2;
 8000618:	2302      	movs	r3, #2
 800061a:	64bb      	str	r3, [r7, #72]	; 0x48
		  Osc_Init.PLL.PLLR = 2;
 800061c:	2302      	movs	r3, #2
 800061e:	64fb      	str	r3, [r7, #76]	; 0x4c
		  Clock_Init.ClockType = RCC_CLOCKTYPE_HCLK|RCC_CLOCKTYPE_SYSCLK
 8000620:	230f      	movs	r3, #15
 8000622:	60bb      	str	r3, [r7, #8]
		  Clock_Init.SYSCLKSource = RCC_SYSCLKSOURCE_PLLCLK;
 8000624:	2302      	movs	r3, #2
 8000626:	60fb      	str	r3, [r7, #12]
		  Clock_Init.AHBCLKDivider = RCC_SYSCLK_DIV1;
 8000628:	2300      	movs	r3, #0
 800062a:	613b      	str	r3, [r7, #16]
		  Clock_Init.APB1CLKDivider = RCC_HCLK_DIV4;
 800062c:	f44f 53a0 	mov.w	r3, #5120	; 0x1400
 8000630:	617b      	str	r3, [r7, #20]
		  Clock_Init.APB2CLKDivider = RCC_HCLK_DIV2;
 8000632:	f44f 5380 	mov.w	r3, #4096	; 0x1000
 8000636:	61bb      	str	r3, [r7, #24]
          flash_latency = 3;
 8000638:	2303      	movs	r3, #3
 800063a:	f887 3057 	strb.w	r3, [r7, #87]	; 0x57
	     break;
 800063e:	bf00      	nop
	 }

		if (HAL_RCC_OscConfig(&Osc_Init) != HAL_OK)
 8000640:	f107 031c 	add.w	r3, r7, #28
 8000644:	4618      	mov	r0, r3
 8000646:	f001 f903 	bl	8001850 <HAL_RCC_OscConfig>
 800064a:	4603      	mov	r3, r0
 800064c:	2b00      	cmp	r3, #0
 800064e:	d001      	beq.n	8000654 <SystemClock_Config_HSE+0xec>
	{
			Error_handler();
 8000650:	f000 f954 	bl	80008fc <Error_handler>
	}



	if (HAL_RCC_ClockConfig(&Clock_Init, flash_latency) != HAL_OK)
 8000654:	f897 2057 	ldrb.w	r2, [r7, #87]	; 0x57
 8000658:	f107 0308 	add.w	r3, r7, #8
 800065c:	4611      	mov	r1, r2
 800065e:	4618      	mov	r0, r3
 8000660:	f000 fdac 	bl	80011bc <HAL_RCC_ClockConfig>
 8000664:	4603      	mov	r3, r0
 8000666:	2b00      	cmp	r3, #0
 8000668:	d001      	beq.n	800066e <SystemClock_Config_HSE+0x106>
	{
		Error_handler();
 800066a:	f000 f947 	bl	80008fc <Error_handler>
	}


	/*Configure the systick timer interrupt frequency (for every 1 ms) */
	uint32_t hclk_freq = HAL_RCC_GetHCLKFreq();
 800066e:	f000 fe8b 	bl	8001388 <HAL_RCC_GetHCLKFreq>
 8000672:	6538      	str	r0, [r7, #80]	; 0x50
	HAL_SYSTICK_Config(hclk_freq/1000);
 8000674:	6d3b      	ldr	r3, [r7, #80]	; 0x50
 8000676:	4a0a      	ldr	r2, [pc, #40]	; (80006a0 <SystemClock_Config_HSE+0x138>)
 8000678:	fba2 2303 	umull	r2, r3, r2, r3
 800067c:	099b      	lsrs	r3, r3, #6
 800067e:	4618      	mov	r0, r3
 8000680:	f000 fbd1 	bl	8000e26 <HAL_SYSTICK_Config>

	/**Configure the Systick
	*/
	HAL_SYSTICK_CLKSourceConfig(SYSTICK_CLKSOURCE_HCLK);
 8000684:	2004      	movs	r0, #4
 8000686:	f000 fbdb 	bl	8000e40 <HAL_SYSTICK_CLKSourceConfig>

	/* SysTick_IRQn interrupt configuration */
	HAL_NVIC_SetPriority(SysTick_IRQn, 0, 0);
 800068a:	2200      	movs	r2, #0
 800068c:	2100      	movs	r1, #0
 800068e:	f04f 30ff 	mov.w	r0, #4294967295
 8000692:	f000 fb9e 	bl	8000dd2 <HAL_NVIC_SetPriority>
 8000696:	e000      	b.n	800069a <SystemClock_Config_HSE+0x132>
	   return ;
 8000698:	bf00      	nop



 }
 800069a:	3758      	adds	r7, #88	; 0x58
 800069c:	46bd      	mov	sp, r7
 800069e:	bd80      	pop	{r7, pc}
 80006a0:	10624dd3 	.word	0x10624dd3

080006a4 <GPIO_Init>:

void GPIO_Init(void)
{
 80006a4:	b580      	push	{r7, lr}
 80006a6:	b086      	sub	sp, #24
 80006a8:	af00      	add	r7, sp, #0
    __HAL_RCC_GPIOA_CLK_ENABLE();
 80006aa:	2300      	movs	r3, #0
 80006ac:	603b      	str	r3, [r7, #0]
 80006ae:	4b0d      	ldr	r3, [pc, #52]	; (80006e4 <GPIO_Init+0x40>)
 80006b0:	6b1b      	ldr	r3, [r3, #48]	; 0x30
 80006b2:	4a0c      	ldr	r2, [pc, #48]	; (80006e4 <GPIO_Init+0x40>)
 80006b4:	f043 0301 	orr.w	r3, r3, #1
 80006b8:	6313      	str	r3, [r2, #48]	; 0x30
 80006ba:	4b0a      	ldr	r3, [pc, #40]	; (80006e4 <GPIO_Init+0x40>)
 80006bc:	6b1b      	ldr	r3, [r3, #48]	; 0x30
 80006be:	f003 0301 	and.w	r3, r3, #1
 80006c2:	603b      	str	r3, [r7, #0]
 80006c4:	683b      	ldr	r3, [r7, #0]
	GPIO_InitTypeDef ledgpio;
	ledgpio.Pin = GPIO_PIN_5;
 80006c6:	2320      	movs	r3, #32
 80006c8:	607b      	str	r3, [r7, #4]
	ledgpio.Mode = GPIO_MODE_OUTPUT_PP;
 80006ca:	2301      	movs	r3, #1
 80006cc:	60bb      	str	r3, [r7, #8]
	ledgpio.Pull = GPIO_NOPULL;
 80006ce:	2300      	movs	r3, #0
 80006d0:	60fb      	str	r3, [r7, #12]
	HAL_GPIO_Init(GPIOA,&ledgpio);
 80006d2:	1d3b      	adds	r3, r7, #4
 80006d4:	4619      	mov	r1, r3
 80006d6:	4804      	ldr	r0, [pc, #16]	; (80006e8 <GPIO_Init+0x44>)
 80006d8:	f000 fbdc 	bl	8000e94 <HAL_GPIO_Init>
}
 80006dc:	bf00      	nop
 80006de:	3718      	adds	r7, #24
 80006e0:	46bd      	mov	sp, r7
 80006e2:	bd80      	pop	{r7, pc}
 80006e4:	40023800 	.word	0x40023800
 80006e8:	40020000 	.word	0x40020000

080006ec <UART2_Init>:


void UART2_Init(void)
{
 80006ec:	b580      	push	{r7, lr}
 80006ee:	af00      	add	r7, sp, #0
	huart2.Instance = USART2;
 80006f0:	4b0f      	ldr	r3, [pc, #60]	; (8000730 <UART2_Init+0x44>)
 80006f2:	4a10      	ldr	r2, [pc, #64]	; (8000734 <UART2_Init+0x48>)
 80006f4:	601a      	str	r2, [r3, #0]
	huart2.Init.BaudRate = 115200;
 80006f6:	4b0e      	ldr	r3, [pc, #56]	; (8000730 <UART2_Init+0x44>)
 80006f8:	f44f 32e1 	mov.w	r2, #115200	; 0x1c200
 80006fc:	605a      	str	r2, [r3, #4]
	huart2.Init.WordLength = UART_WORDLENGTH_8B;
 80006fe:	4b0c      	ldr	r3, [pc, #48]	; (8000730 <UART2_Init+0x44>)
 8000700:	2200      	movs	r2, #0
 8000702:	609a      	str	r2, [r3, #8]
	huart2.Init.StopBits = UART_STOPBITS_1;
 8000704:	4b0a      	ldr	r3, [pc, #40]	; (8000730 <UART2_Init+0x44>)
 8000706:	2200      	movs	r2, #0
 8000708:	60da      	str	r2, [r3, #12]
	huart2.Init.Parity = UART_PARITY_NONE;
 800070a:	4b09      	ldr	r3, [pc, #36]	; (8000730 <UART2_Init+0x44>)
 800070c:	2200      	movs	r2, #0
 800070e:	611a      	str	r2, [r3, #16]
	huart2.Init.HwFlowCtl = UART_HWCONTROL_NONE;
 8000710:	4b07      	ldr	r3, [pc, #28]	; (8000730 <UART2_Init+0x44>)
 8000712:	2200      	movs	r2, #0
 8000714:	619a      	str	r2, [r3, #24]
	huart2.Init.Mode = UART_MODE_TX_RX;
 8000716:	4b06      	ldr	r3, [pc, #24]	; (8000730 <UART2_Init+0x44>)
 8000718:	220c      	movs	r2, #12
 800071a:	615a      	str	r2, [r3, #20]
	if ( HAL_UART_Init(&huart2) != HAL_OK )
 800071c:	4804      	ldr	r0, [pc, #16]	; (8000730 <UART2_Init+0x44>)
 800071e:	f002 f90c 	bl	800293a <HAL_UART_Init>
 8000722:	4603      	mov	r3, r0
 8000724:	2b00      	cmp	r3, #0
 8000726:	d001      	beq.n	800072c <UART2_Init+0x40>
	{
		//There is a problem
		Error_handler();
 8000728:	f000 f8e8 	bl	80008fc <Error_handler>
	}


}
 800072c:	bf00      	nop
 800072e:	bd80      	pop	{r7, pc}
 8000730:	20000080 	.word	0x20000080
 8000734:	40004400 	.word	0x40004400

08000738 <TIMER2_Init>:


 void TIMER2_Init(void)
{
 8000738:	b580      	push	{r7, lr}
 800073a:	b088      	sub	sp, #32
 800073c:	af00      	add	r7, sp, #0
	 TIM_OC_InitTypeDef tim2PWM_Config;
	 htimer2.Instance = TIM2;
 800073e:	4b3e      	ldr	r3, [pc, #248]	; (8000838 <TIMER2_Init+0x100>)
 8000740:	f04f 4280 	mov.w	r2, #1073741824	; 0x40000000
 8000744:	601a      	str	r2, [r3, #0]
	 htimer2.Init.Prescaler = 4999;
 8000746:	4b3c      	ldr	r3, [pc, #240]	; (8000838 <TIMER2_Init+0x100>)
 8000748:	f241 3287 	movw	r2, #4999	; 0x1387
 800074c:	605a      	str	r2, [r3, #4]
	 htimer2.Init.Period = 9999;
 800074e:	4b3a      	ldr	r3, [pc, #232]	; (8000838 <TIMER2_Init+0x100>)
 8000750:	f242 720f 	movw	r2, #9999	; 0x270f
 8000754:	60da      	str	r2, [r3, #12]
	 if(HAL_TIM_PWM_Init(&htimer2) != HAL_OK)
 8000756:	4838      	ldr	r0, [pc, #224]	; (8000838 <TIMER2_Init+0x100>)
 8000758:	f001 fb18 	bl	8001d8c <HAL_TIM_PWM_Init>
 800075c:	4603      	mov	r3, r0
 800075e:	2b00      	cmp	r3, #0
 8000760:	d001      	beq.n	8000766 <TIMER2_Init+0x2e>
	 {
		 Error_handler();
 8000762:	f000 f8cb 	bl	80008fc <Error_handler>
	 }
	 memset(&tim2PWM_Config,0 , sizeof(tim2PWM_Config));
 8000766:	1d3b      	adds	r3, r7, #4
 8000768:	221c      	movs	r2, #28
 800076a:	2100      	movs	r1, #0
 800076c:	4618      	mov	r0, r3
 800076e:	f002 fba5 	bl	8002ebc <memset>
	 tim2PWM_Config.OCMode = TIM_OCMODE_PWM1;
 8000772:	2360      	movs	r3, #96	; 0x60
 8000774:	607b      	str	r3, [r7, #4]
	 tim2PWM_Config.OCPolarity = TIM_OCPOLARITY_HIGH;
 8000776:	2300      	movs	r3, #0
 8000778:	60fb      	str	r3, [r7, #12]

	 tim2PWM_Config.Pulse = (htimer2.Init.Period * 25)/100; // 25 Percent Duty Cycle
 800077a:	4b2f      	ldr	r3, [pc, #188]	; (8000838 <TIMER2_Init+0x100>)
 800077c:	68da      	ldr	r2, [r3, #12]
 800077e:	4613      	mov	r3, r2
 8000780:	009b      	lsls	r3, r3, #2
 8000782:	4413      	add	r3, r2
 8000784:	009a      	lsls	r2, r3, #2
 8000786:	4413      	add	r3, r2
 8000788:	4a2c      	ldr	r2, [pc, #176]	; (800083c <TIMER2_Init+0x104>)
 800078a:	fba2 2303 	umull	r2, r3, r2, r3
 800078e:	095b      	lsrs	r3, r3, #5
 8000790:	60bb      	str	r3, [r7, #8]
	 if(HAL_TIM_PWM_ConfigChannel(&htimer2, &tim2PWM_Config, TIM_CHANNEL_1) != HAL_OK)
 8000792:	1d3b      	adds	r3, r7, #4
 8000794:	2200      	movs	r2, #0
 8000796:	4619      	mov	r1, r3
 8000798:	4827      	ldr	r0, [pc, #156]	; (8000838 <TIMER2_Init+0x100>)
 800079a:	f001 fd17 	bl	80021cc <HAL_TIM_PWM_ConfigChannel>
 800079e:	4603      	mov	r3, r0
 80007a0:	2b00      	cmp	r3, #0
 80007a2:	d001      	beq.n	80007a8 <TIMER2_Init+0x70>
	 {
		 Error_handler();
 80007a4:	f000 f8aa 	bl	80008fc <Error_handler>

	 }
	 tim2PWM_Config.Pulse = (htimer2.Init.Period * 45)/100; // 45 Percent Duty Cycle
 80007a8:	4b23      	ldr	r3, [pc, #140]	; (8000838 <TIMER2_Init+0x100>)
 80007aa:	68da      	ldr	r2, [r3, #12]
 80007ac:	4613      	mov	r3, r2
 80007ae:	005b      	lsls	r3, r3, #1
 80007b0:	4413      	add	r3, r2
 80007b2:	011a      	lsls	r2, r3, #4
 80007b4:	1ad3      	subs	r3, r2, r3
 80007b6:	4a21      	ldr	r2, [pc, #132]	; (800083c <TIMER2_Init+0x104>)
 80007b8:	fba2 2303 	umull	r2, r3, r2, r3
 80007bc:	095b      	lsrs	r3, r3, #5
 80007be:	60bb      	str	r3, [r7, #8]
	 if(HAL_TIM_PWM_ConfigChannel(&htimer2, &tim2PWM_Config, TIM_CHANNEL_2) != HAL_OK)
 80007c0:	1d3b      	adds	r3, r7, #4
 80007c2:	2204      	movs	r2, #4
 80007c4:	4619      	mov	r1, r3
 80007c6:	481c      	ldr	r0, [pc, #112]	; (8000838 <TIMER2_Init+0x100>)
 80007c8:	f001 fd00 	bl	80021cc <HAL_TIM_PWM_ConfigChannel>
 80007cc:	4603      	mov	r3, r0
 80007ce:	2b00      	cmp	r3, #0
 80007d0:	d001      	beq.n	80007d6 <TIMER2_Init+0x9e>
	 {
		 Error_handler();
 80007d2:	f000 f893 	bl	80008fc <Error_handler>

	 }
	tim2PWM_Config.Pulse = (htimer2.Init.Period * 75)/100; // 75 Percent Duty Cycle
 80007d6:	4b18      	ldr	r3, [pc, #96]	; (8000838 <TIMER2_Init+0x100>)
 80007d8:	68da      	ldr	r2, [r3, #12]
 80007da:	4613      	mov	r3, r2
 80007dc:	009b      	lsls	r3, r3, #2
 80007de:	4413      	add	r3, r2
 80007e0:	011a      	lsls	r2, r3, #4
 80007e2:	1ad3      	subs	r3, r2, r3
 80007e4:	4a15      	ldr	r2, [pc, #84]	; (800083c <TIMER2_Init+0x104>)
 80007e6:	fba2 2303 	umull	r2, r3, r2, r3
 80007ea:	095b      	lsrs	r3, r3, #5
 80007ec:	60bb      	str	r3, [r7, #8]
	 if(HAL_TIM_PWM_ConfigChannel(&htimer2, &tim2PWM_Config, TIM_CHANNEL_3) != HAL_OK)
 80007ee:	1d3b      	adds	r3, r7, #4
 80007f0:	2208      	movs	r2, #8
 80007f2:	4619      	mov	r1, r3
 80007f4:	4810      	ldr	r0, [pc, #64]	; (8000838 <TIMER2_Init+0x100>)
 80007f6:	f001 fce9 	bl	80021cc <HAL_TIM_PWM_ConfigChannel>
 80007fa:	4603      	mov	r3, r0
 80007fc:	2b00      	cmp	r3, #0
 80007fe:	d001      	beq.n	8000804 <TIMER2_Init+0xcc>
	 {
		 Error_handler();
 8000800:	f000 f87c 	bl	80008fc <Error_handler>

	 }
	tim2PWM_Config.Pulse = (htimer2.Init.Period * 90)/100; // 90 Percent Duty Cycle
 8000804:	4b0c      	ldr	r3, [pc, #48]	; (8000838 <TIMER2_Init+0x100>)
 8000806:	68db      	ldr	r3, [r3, #12]
 8000808:	225a      	movs	r2, #90	; 0x5a
 800080a:	fb02 f303 	mul.w	r3, r2, r3
 800080e:	4a0b      	ldr	r2, [pc, #44]	; (800083c <TIMER2_Init+0x104>)
 8000810:	fba2 2303 	umull	r2, r3, r2, r3
 8000814:	095b      	lsrs	r3, r3, #5
 8000816:	60bb      	str	r3, [r7, #8]
	 if(HAL_TIM_PWM_ConfigChannel(&htimer2, &tim2PWM_Config, TIM_CHANNEL_4) != HAL_OK)
 8000818:	1d3b      	adds	r3, r7, #4
 800081a:	220c      	movs	r2, #12
 800081c:	4619      	mov	r1, r3
 800081e:	4806      	ldr	r0, [pc, #24]	; (8000838 <TIMER2_Init+0x100>)
 8000820:	f001 fcd4 	bl	80021cc <HAL_TIM_PWM_ConfigChannel>
 8000824:	4603      	mov	r3, r0
 8000826:	2b00      	cmp	r3, #0
 8000828:	d001      	beq.n	800082e <TIMER2_Init+0xf6>
	 {
		 Error_handler();
 800082a:	f000 f867 	bl	80008fc <Error_handler>

	 }

}
 800082e:	bf00      	nop
 8000830:	3720      	adds	r7, #32
 8000832:	46bd      	mov	sp, r7
 8000834:	bd80      	pop	{r7, pc}
 8000836:	bf00      	nop
 8000838:	20000038 	.word	0x20000038
 800083c:	51eb851f 	.word	0x51eb851f

08000840 <HAL_TIM_OC_DelayElapsedCallback>:
 void HAL_TIM_OC_DelayElapsedCallback(TIM_HandleTypeDef *htim)
 {
 8000840:	b580      	push	{r7, lr}
 8000842:	b082      	sub	sp, #8
 8000844:	af00      	add	r7, sp, #0
 8000846:	6078      	str	r0, [r7, #4]
	 // Check if the 500Hz Channel 1 Triggered it
   if(htim->Channel == HAL_TIM_ACTIVE_CHANNEL_1)
 8000848:	687b      	ldr	r3, [r7, #4]
 800084a:	7f1b      	ldrb	r3, [r3, #28]
 800084c:	2b01      	cmp	r3, #1
 800084e:	d10e      	bne.n	800086e <HAL_TIM_OC_DelayElapsedCallback+0x2e>
   {
	   //HAL_GPIO_TogglePin(GPIOA, GPIO_PIN_5);
	   ccr_content = HAL_TIM_ReadCapturedValue(htim, TIM_CHANNEL_1);
 8000850:	2100      	movs	r1, #0
 8000852:	6878      	ldr	r0, [r7, #4]
 8000854:	f001 fd7c 	bl	8002350 <HAL_TIM_ReadCapturedValue>
 8000858:	4603      	mov	r3, r0
 800085a:	4a23      	ldr	r2, [pc, #140]	; (80008e8 <HAL_TIM_OC_DelayElapsedCallback+0xa8>)
 800085c:	6013      	str	r3, [r2, #0]
	   __HAL_TIM_SET_COMPARE(htim, TIM_CHANNEL_1, ccr_content+pulse1_value);
 800085e:	4b22      	ldr	r3, [pc, #136]	; (80008e8 <HAL_TIM_OC_DelayElapsedCallback+0xa8>)
 8000860:	6819      	ldr	r1, [r3, #0]
 8000862:	4b22      	ldr	r3, [pc, #136]	; (80008ec <HAL_TIM_OC_DelayElapsedCallback+0xac>)
 8000864:	681a      	ldr	r2, [r3, #0]
 8000866:	687b      	ldr	r3, [r7, #4]
 8000868:	681b      	ldr	r3, [r3, #0]
 800086a:	440a      	add	r2, r1
 800086c:	635a      	str	r2, [r3, #52]	; 0x34
   }
   // Check if the 1000Hz Channel 2 triggered it
   if(htim->Channel == HAL_TIM_ACTIVE_CHANNEL_2)
 800086e:	687b      	ldr	r3, [r7, #4]
 8000870:	7f1b      	ldrb	r3, [r3, #28]
 8000872:	2b02      	cmp	r3, #2
 8000874:	d10e      	bne.n	8000894 <HAL_TIM_OC_DelayElapsedCallback+0x54>
  {
   ccr_content = HAL_TIM_ReadCapturedValue(htim, TIM_CHANNEL_2);
 8000876:	2104      	movs	r1, #4
 8000878:	6878      	ldr	r0, [r7, #4]
 800087a:	f001 fd69 	bl	8002350 <HAL_TIM_ReadCapturedValue>
 800087e:	4603      	mov	r3, r0
 8000880:	4a19      	ldr	r2, [pc, #100]	; (80008e8 <HAL_TIM_OC_DelayElapsedCallback+0xa8>)
 8000882:	6013      	str	r3, [r2, #0]
   __HAL_TIM_SET_COMPARE(htim, TIM_CHANNEL_2, ccr_content+pulse2_value);
 8000884:	4b18      	ldr	r3, [pc, #96]	; (80008e8 <HAL_TIM_OC_DelayElapsedCallback+0xa8>)
 8000886:	6819      	ldr	r1, [r3, #0]
 8000888:	4b19      	ldr	r3, [pc, #100]	; (80008f0 <HAL_TIM_OC_DelayElapsedCallback+0xb0>)
 800088a:	681a      	ldr	r2, [r3, #0]
 800088c:	687b      	ldr	r3, [r7, #4]
 800088e:	681b      	ldr	r3, [r3, #0]
 8000890:	440a      	add	r2, r1
 8000892:	639a      	str	r2, [r3, #56]	; 0x38
  }
   // 2000Hz
   if(htim->Channel == HAL_TIM_ACTIVE_CHANNEL_3)
 8000894:	687b      	ldr	r3, [r7, #4]
 8000896:	7f1b      	ldrb	r3, [r3, #28]
 8000898:	2b04      	cmp	r3, #4
 800089a:	d10e      	bne.n	80008ba <HAL_TIM_OC_DelayElapsedCallback+0x7a>
  {
   ccr_content = HAL_TIM_ReadCapturedValue(htim, TIM_CHANNEL_3);
 800089c:	2108      	movs	r1, #8
 800089e:	6878      	ldr	r0, [r7, #4]
 80008a0:	f001 fd56 	bl	8002350 <HAL_TIM_ReadCapturedValue>
 80008a4:	4603      	mov	r3, r0
 80008a6:	4a10      	ldr	r2, [pc, #64]	; (80008e8 <HAL_TIM_OC_DelayElapsedCallback+0xa8>)
 80008a8:	6013      	str	r3, [r2, #0]
   __HAL_TIM_SET_COMPARE(htim, TIM_CHANNEL_3, ccr_content+pulse3_value);
 80008aa:	4b0f      	ldr	r3, [pc, #60]	; (80008e8 <HAL_TIM_OC_DelayElapsedCallback+0xa8>)
 80008ac:	6819      	ldr	r1, [r3, #0]
 80008ae:	4b11      	ldr	r3, [pc, #68]	; (80008f4 <HAL_TIM_OC_DelayElapsedCallback+0xb4>)
 80008b0:	681a      	ldr	r2, [r3, #0]
 80008b2:	687b      	ldr	r3, [r7, #4]
 80008b4:	681b      	ldr	r3, [r3, #0]
 80008b6:	440a      	add	r2, r1
 80008b8:	63da      	str	r2, [r3, #60]	; 0x3c
  }
   // 4000Hz
   if(htim->Channel == HAL_TIM_ACTIVE_CHANNEL_4)
 80008ba:	687b      	ldr	r3, [r7, #4]
 80008bc:	7f1b      	ldrb	r3, [r3, #28]
 80008be:	2b08      	cmp	r3, #8
 80008c0:	d10e      	bne.n	80008e0 <HAL_TIM_OC_DelayElapsedCallback+0xa0>
  {
   ccr_content = HAL_TIM_ReadCapturedValue(htim, TIM_CHANNEL_4);
 80008c2:	210c      	movs	r1, #12
 80008c4:	6878      	ldr	r0, [r7, #4]
 80008c6:	f001 fd43 	bl	8002350 <HAL_TIM_ReadCapturedValue>
 80008ca:	4603      	mov	r3, r0
 80008cc:	4a06      	ldr	r2, [pc, #24]	; (80008e8 <HAL_TIM_OC_DelayElapsedCallback+0xa8>)
 80008ce:	6013      	str	r3, [r2, #0]
   __HAL_TIM_SET_COMPARE(htim, TIM_CHANNEL_4, ccr_content+pulse4_value);
 80008d0:	4b05      	ldr	r3, [pc, #20]	; (80008e8 <HAL_TIM_OC_DelayElapsedCallback+0xa8>)
 80008d2:	6819      	ldr	r1, [r3, #0]
 80008d4:	4b08      	ldr	r3, [pc, #32]	; (80008f8 <HAL_TIM_OC_DelayElapsedCallback+0xb8>)
 80008d6:	681a      	ldr	r2, [r3, #0]
 80008d8:	687b      	ldr	r3, [r7, #4]
 80008da:	681b      	ldr	r3, [r3, #0]
 80008dc:	440a      	add	r2, r1
 80008de:	641a      	str	r2, [r3, #64]	; 0x40
  }

 }
 80008e0:	bf00      	nop
 80008e2:	3708      	adds	r7, #8
 80008e4:	46bd      	mov	sp, r7
 80008e6:	bd80      	pop	{r7, pc}
 80008e8:	200000c4 	.word	0x200000c4
 80008ec:	20000000 	.word	0x20000000
 80008f0:	20000004 	.word	0x20000004
 80008f4:	20000008 	.word	0x20000008
 80008f8:	2000000c 	.word	0x2000000c

080008fc <Error_handler>:




void Error_handler(void)
{
 80008fc:	b480      	push	{r7}
 80008fe:	af00      	add	r7, sp, #0
	while(1);
 8000900:	e7fe      	b.n	8000900 <Error_handler+0x4>
	...

08000904 <HAL_MspInit>:


#include "main.h"

void HAL_MspInit(void)
{
 8000904:	b580      	push	{r7, lr}
 8000906:	af00      	add	r7, sp, #0
 //Here will do low level processor specific inits.
	//1. Set up the priority grouping of the arm cortex mx processor
	HAL_NVIC_SetPriorityGrouping(NVIC_PRIORITYGROUP_4);
 8000908:	2003      	movs	r0, #3
 800090a:	f000 fa57 	bl	8000dbc <HAL_NVIC_SetPriorityGrouping>

	//2. Enable the required system exceptions of the arm cortex mx processor
	SCB->SHCSR |= 0x7 << 16; //usage fault, memory fault and bus fault system exceptions
 800090e:	4b0d      	ldr	r3, [pc, #52]	; (8000944 <HAL_MspInit+0x40>)
 8000910:	6a5b      	ldr	r3, [r3, #36]	; 0x24
 8000912:	4a0c      	ldr	r2, [pc, #48]	; (8000944 <HAL_MspInit+0x40>)
 8000914:	f443 23e0 	orr.w	r3, r3, #458752	; 0x70000
 8000918:	6253      	str	r3, [r2, #36]	; 0x24

	//3. configure the priority for the system exceptions
	HAL_NVIC_SetPriority(MemoryManagement_IRQn,0,0);
 800091a:	2200      	movs	r2, #0
 800091c:	2100      	movs	r1, #0
 800091e:	f06f 000b 	mvn.w	r0, #11
 8000922:	f000 fa56 	bl	8000dd2 <HAL_NVIC_SetPriority>
	HAL_NVIC_SetPriority(BusFault_IRQn,0,0);
 8000926:	2200      	movs	r2, #0
 8000928:	2100      	movs	r1, #0
 800092a:	f06f 000a 	mvn.w	r0, #10
 800092e:	f000 fa50 	bl	8000dd2 <HAL_NVIC_SetPriority>
	HAL_NVIC_SetPriority(UsageFault_IRQn,0,0);
 8000932:	2200      	movs	r2, #0
 8000934:	2100      	movs	r1, #0
 8000936:	f06f 0009 	mvn.w	r0, #9
 800093a:	f000 fa4a 	bl	8000dd2 <HAL_NVIC_SetPriority>
}
 800093e:	bf00      	nop
 8000940:	bd80      	pop	{r7, pc}
 8000942:	bf00      	nop
 8000944:	e000ed00 	.word	0xe000ed00

08000948 <HAL_TIM_PWM_MspInit>:
void HAL_TIM_PWM_MspInit(TIM_HandleTypeDef *htim)
{
 8000948:	b580      	push	{r7, lr}
 800094a:	b08a      	sub	sp, #40	; 0x28
 800094c:	af00      	add	r7, sp, #0
 800094e:	6078      	str	r0, [r7, #4]
	GPIO_InitTypeDef tim2OC_ch_gpios;
	//1. enable the peripheral clock for the timer2 peripheral
	// Inclulding Port A and B if Desired
	 __HAL_RCC_TIM2_CLK_ENABLE();
 8000950:	2300      	movs	r3, #0
 8000952:	613b      	str	r3, [r7, #16]
 8000954:	4b2a      	ldr	r3, [pc, #168]	; (8000a00 <HAL_TIM_PWM_MspInit+0xb8>)
 8000956:	6c1b      	ldr	r3, [r3, #64]	; 0x40
 8000958:	4a29      	ldr	r2, [pc, #164]	; (8000a00 <HAL_TIM_PWM_MspInit+0xb8>)
 800095a:	f043 0301 	orr.w	r3, r3, #1
 800095e:	6413      	str	r3, [r2, #64]	; 0x40
 8000960:	4b27      	ldr	r3, [pc, #156]	; (8000a00 <HAL_TIM_PWM_MspInit+0xb8>)
 8000962:	6c1b      	ldr	r3, [r3, #64]	; 0x40
 8000964:	f003 0301 	and.w	r3, r3, #1
 8000968:	613b      	str	r3, [r7, #16]
 800096a:	693b      	ldr	r3, [r7, #16]
	 __HAL_RCC_GPIOA_CLK_ENABLE();
 800096c:	2300      	movs	r3, #0
 800096e:	60fb      	str	r3, [r7, #12]
 8000970:	4b23      	ldr	r3, [pc, #140]	; (8000a00 <HAL_TIM_PWM_MspInit+0xb8>)
 8000972:	6b1b      	ldr	r3, [r3, #48]	; 0x30
 8000974:	4a22      	ldr	r2, [pc, #136]	; (8000a00 <HAL_TIM_PWM_MspInit+0xb8>)
 8000976:	f043 0301 	orr.w	r3, r3, #1
 800097a:	6313      	str	r3, [r2, #48]	; 0x30
 800097c:	4b20      	ldr	r3, [pc, #128]	; (8000a00 <HAL_TIM_PWM_MspInit+0xb8>)
 800097e:	6b1b      	ldr	r3, [r3, #48]	; 0x30
 8000980:	f003 0301 	and.w	r3, r3, #1
 8000984:	60fb      	str	r3, [r7, #12]
 8000986:	68fb      	ldr	r3, [r7, #12]
	 __HAL_RCC_GPIOB_CLK_ENABLE();
 8000988:	2300      	movs	r3, #0
 800098a:	60bb      	str	r3, [r7, #8]
 800098c:	4b1c      	ldr	r3, [pc, #112]	; (8000a00 <HAL_TIM_PWM_MspInit+0xb8>)
 800098e:	6b1b      	ldr	r3, [r3, #48]	; 0x30
 8000990:	4a1b      	ldr	r2, [pc, #108]	; (8000a00 <HAL_TIM_PWM_MspInit+0xb8>)
 8000992:	f043 0302 	orr.w	r3, r3, #2
 8000996:	6313      	str	r3, [r2, #48]	; 0x30
 8000998:	4b19      	ldr	r3, [pc, #100]	; (8000a00 <HAL_TIM_PWM_MspInit+0xb8>)
 800099a:	6b1b      	ldr	r3, [r3, #48]	; 0x30
 800099c:	f003 0302 	and.w	r3, r3, #2
 80009a0:	60bb      	str	r3, [r7, #8]
 80009a2:	68bb      	ldr	r3, [r7, #8]

	 //2. Configure a gpio to behave as timer2 channel 1
	 tim2OC_ch_gpios.Pin = GPIO_PIN_0 | GPIO_PIN_1;
 80009a4:	2303      	movs	r3, #3
 80009a6:	617b      	str	r3, [r7, #20]
	 tim2OC_ch_gpios.Mode = GPIO_MODE_AF_PP;
 80009a8:	2302      	movs	r3, #2
 80009aa:	61bb      	str	r3, [r7, #24]
	 tim2OC_ch_gpios.Pull =	GPIO_NOPULL;
 80009ac:	2300      	movs	r3, #0
 80009ae:	61fb      	str	r3, [r7, #28]
     tim2OC_ch_gpios.Speed = GPIO_SPEED_FREQ_LOW;
 80009b0:	2300      	movs	r3, #0
 80009b2:	623b      	str	r3, [r7, #32]
     tim2OC_ch_gpios.Alternate = GPIO_AF1_TIM2; // Acts like Tim2 and is Alternate Function
 80009b4:	2301      	movs	r3, #1
 80009b6:	627b      	str	r3, [r7, #36]	; 0x24
     HAL_GPIO_Init(GPIOA, &tim2OC_ch_gpios);
 80009b8:	f107 0314 	add.w	r3, r7, #20
 80009bc:	4619      	mov	r1, r3
 80009be:	4811      	ldr	r0, [pc, #68]	; (8000a04 <HAL_TIM_PWM_MspInit+0xbc>)
 80009c0:	f000 fa68 	bl	8000e94 <HAL_GPIO_Init>
     // We are using PortB PB10 for Channel 3 and PB2 for Channel 4
     tim2OC_ch_gpios.Pin = GPIO_PIN_2 | GPIO_PIN_10;
 80009c4:	f240 4304 	movw	r3, #1028	; 0x404
 80009c8:	617b      	str	r3, [r7, #20]
     tim2OC_ch_gpios.Mode = GPIO_MODE_AF_PP;
 80009ca:	2302      	movs	r3, #2
 80009cc:	61bb      	str	r3, [r7, #24]
     tim2OC_ch_gpios.Pull =	GPIO_NOPULL;
 80009ce:	2300      	movs	r3, #0
 80009d0:	61fb      	str	r3, [r7, #28]
     tim2OC_ch_gpios.Speed = GPIO_SPEED_FREQ_LOW;
 80009d2:	2300      	movs	r3, #0
 80009d4:	623b      	str	r3, [r7, #32]
     tim2OC_ch_gpios.Alternate = GPIO_AF1_TIM2;
 80009d6:	2301      	movs	r3, #1
 80009d8:	627b      	str	r3, [r7, #36]	; 0x24
     HAL_GPIO_Init(GPIOB, &tim2OC_ch_gpios);
 80009da:	f107 0314 	add.w	r3, r7, #20
 80009de:	4619      	mov	r1, r3
 80009e0:	4809      	ldr	r0, [pc, #36]	; (8000a08 <HAL_TIM_PWM_MspInit+0xc0>)
 80009e2:	f000 fa57 	bl	8000e94 <HAL_GPIO_Init>


	 //3. nvic settings
	 HAL_NVIC_SetPriority(TIM2_IRQn,15,0);
 80009e6:	2200      	movs	r2, #0
 80009e8:	210f      	movs	r1, #15
 80009ea:	201c      	movs	r0, #28
 80009ec:	f000 f9f1 	bl	8000dd2 <HAL_NVIC_SetPriority>
	 HAL_NVIC_EnableIRQ(TIM2_IRQn);
 80009f0:	201c      	movs	r0, #28
 80009f2:	f000 fa0a 	bl	8000e0a <HAL_NVIC_EnableIRQ>

}
 80009f6:	bf00      	nop
 80009f8:	3728      	adds	r7, #40	; 0x28
 80009fa:	46bd      	mov	sp, r7
 80009fc:	bd80      	pop	{r7, pc}
 80009fe:	bf00      	nop
 8000a00:	40023800 	.word	0x40023800
 8000a04:	40020000 	.word	0x40020000
 8000a08:	40020400 	.word	0x40020400

08000a0c <HAL_UART_MspInit>:


 void HAL_UART_MspInit(UART_HandleTypeDef *huart)
{
 8000a0c:	b580      	push	{r7, lr}
 8000a0e:	b08a      	sub	sp, #40	; 0x28
 8000a10:	af00      	add	r7, sp, #0
 8000a12:	6078      	str	r0, [r7, #4]
	 GPIO_InitTypeDef gpio_uart;
	 //here we are going to do the low level inits. of the USART2 peripheral

	 //1. enable the clock for the USART2 peripheral as well as for GPIOA peripheral
	 __HAL_RCC_USART2_CLK_ENABLE();
 8000a14:	2300      	movs	r3, #0
 8000a16:	613b      	str	r3, [r7, #16]
 8000a18:	4b1e      	ldr	r3, [pc, #120]	; (8000a94 <HAL_UART_MspInit+0x88>)
 8000a1a:	6c1b      	ldr	r3, [r3, #64]	; 0x40
 8000a1c:	4a1d      	ldr	r2, [pc, #116]	; (8000a94 <HAL_UART_MspInit+0x88>)
 8000a1e:	f443 3300 	orr.w	r3, r3, #131072	; 0x20000
 8000a22:	6413      	str	r3, [r2, #64]	; 0x40
 8000a24:	4b1b      	ldr	r3, [pc, #108]	; (8000a94 <HAL_UART_MspInit+0x88>)
 8000a26:	6c1b      	ldr	r3, [r3, #64]	; 0x40
 8000a28:	f403 3300 	and.w	r3, r3, #131072	; 0x20000
 8000a2c:	613b      	str	r3, [r7, #16]
 8000a2e:	693b      	ldr	r3, [r7, #16]
	 __HAL_RCC_GPIOA_CLK_ENABLE();
 8000a30:	2300      	movs	r3, #0
 8000a32:	60fb      	str	r3, [r7, #12]
 8000a34:	4b17      	ldr	r3, [pc, #92]	; (8000a94 <HAL_UART_MspInit+0x88>)
 8000a36:	6b1b      	ldr	r3, [r3, #48]	; 0x30
 8000a38:	4a16      	ldr	r2, [pc, #88]	; (8000a94 <HAL_UART_MspInit+0x88>)
 8000a3a:	f043 0301 	orr.w	r3, r3, #1
 8000a3e:	6313      	str	r3, [r2, #48]	; 0x30
 8000a40:	4b14      	ldr	r3, [pc, #80]	; (8000a94 <HAL_UART_MspInit+0x88>)
 8000a42:	6b1b      	ldr	r3, [r3, #48]	; 0x30
 8000a44:	f003 0301 	and.w	r3, r3, #1
 8000a48:	60fb      	str	r3, [r7, #12]
 8000a4a:	68fb      	ldr	r3, [r7, #12]

	 //2 . Do the pin muxing configurations
	 gpio_uart.Pin = GPIO_PIN_2;
 8000a4c:	2304      	movs	r3, #4
 8000a4e:	617b      	str	r3, [r7, #20]
	 gpio_uart.Mode =GPIO_MODE_AF_PP;
 8000a50:	2302      	movs	r3, #2
 8000a52:	61bb      	str	r3, [r7, #24]
	 gpio_uart.Pull = GPIO_PULLUP;
 8000a54:	2301      	movs	r3, #1
 8000a56:	61fb      	str	r3, [r7, #28]
	 gpio_uart.Speed = GPIO_SPEED_FREQ_LOW;
 8000a58:	2300      	movs	r3, #0
 8000a5a:	623b      	str	r3, [r7, #32]
	 gpio_uart.Alternate =  GPIO_AF7_USART2; //UART2_TX
 8000a5c:	2307      	movs	r3, #7
 8000a5e:	627b      	str	r3, [r7, #36]	; 0x24
	 HAL_GPIO_Init(GPIOA,&gpio_uart);
 8000a60:	f107 0314 	add.w	r3, r7, #20
 8000a64:	4619      	mov	r1, r3
 8000a66:	480c      	ldr	r0, [pc, #48]	; (8000a98 <HAL_UART_MspInit+0x8c>)
 8000a68:	f000 fa14 	bl	8000e94 <HAL_GPIO_Init>

	 gpio_uart.Pin = GPIO_PIN_3; //UART2_RX
 8000a6c:	2308      	movs	r3, #8
 8000a6e:	617b      	str	r3, [r7, #20]
	 HAL_GPIO_Init(GPIOA,&gpio_uart);
 8000a70:	f107 0314 	add.w	r3, r7, #20
 8000a74:	4619      	mov	r1, r3
 8000a76:	4808      	ldr	r0, [pc, #32]	; (8000a98 <HAL_UART_MspInit+0x8c>)
 8000a78:	f000 fa0c 	bl	8000e94 <HAL_GPIO_Init>
	 //3 . Enable the IRQ and set up the priority (NVIC settings )
	 HAL_NVIC_EnableIRQ(USART2_IRQn);
 8000a7c:	2026      	movs	r0, #38	; 0x26
 8000a7e:	f000 f9c4 	bl	8000e0a <HAL_NVIC_EnableIRQ>
	 HAL_NVIC_SetPriority(USART2_IRQn,15,0);
 8000a82:	2200      	movs	r2, #0
 8000a84:	210f      	movs	r1, #15
 8000a86:	2026      	movs	r0, #38	; 0x26
 8000a88:	f000 f9a3 	bl	8000dd2 <HAL_NVIC_SetPriority>

}
 8000a8c:	bf00      	nop
 8000a8e:	3728      	adds	r7, #40	; 0x28
 8000a90:	46bd      	mov	sp, r7
 8000a92:	bd80      	pop	{r7, pc}
 8000a94:	40023800 	.word	0x40023800
 8000a98:	40020000 	.word	0x40020000

08000a9c <SysTick_Handler>:
// #include "st32f4xx_hal.h"
#include "main.h"
extern TIM_HandleTypeDef htimer2;

void SysTick_Handler(void)
{
 8000a9c:	b580      	push	{r7, lr}
 8000a9e:	af00      	add	r7, sp, #0
	HAL_IncTick();
 8000aa0:	f000 f89c 	bl	8000bdc <HAL_IncTick>
	HAL_SYSTICK_IRQHandler();
 8000aa4:	f000 f9e8 	bl	8000e78 <HAL_SYSTICK_IRQHandler>
}
 8000aa8:	bf00      	nop
 8000aaa:	bd80      	pop	{r7, pc}

08000aac <TIM2_IRQHandler>:

void TIM2_IRQHandler(void){
 8000aac:	b580      	push	{r7, lr}
 8000aae:	af00      	add	r7, sp, #0
	HAL_TIM_IRQHandler(&htimer2);
 8000ab0:	4802      	ldr	r0, [pc, #8]	; (8000abc <TIM2_IRQHandler+0x10>)
 8000ab2:	f001 fa83 	bl	8001fbc <HAL_TIM_IRQHandler>
}
 8000ab6:	bf00      	nop
 8000ab8:	bd80      	pop	{r7, pc}
 8000aba:	bf00      	nop
 8000abc:	20000038 	.word	0x20000038

08000ac0 <SystemInit>:
  *         configuration.
  * @param  None
  * @retval None
  */
void SystemInit(void)
{
 8000ac0:	b480      	push	{r7}
 8000ac2:	af00      	add	r7, sp, #0
  /* FPU settings ------------------------------------------------------------*/
  #if (__FPU_PRESENT == 1) && (__FPU_USED == 1)
    SCB->CPACR |= ((3UL << 10*2)|(3UL << 11*2));  /* set CP10 and CP11 Full Access */
 8000ac4:	4b06      	ldr	r3, [pc, #24]	; (8000ae0 <SystemInit+0x20>)
 8000ac6:	f8d3 3088 	ldr.w	r3, [r3, #136]	; 0x88
 8000aca:	4a05      	ldr	r2, [pc, #20]	; (8000ae0 <SystemInit+0x20>)
 8000acc:	f443 0370 	orr.w	r3, r3, #15728640	; 0xf00000
 8000ad0:	f8c2 3088 	str.w	r3, [r2, #136]	; 0x88

  /* Configure the Vector Table location -------------------------------------*/
#if defined(USER_VECT_TAB_ADDRESS)
  SCB->VTOR = VECT_TAB_BASE_ADDRESS | VECT_TAB_OFFSET; /* Vector Table Relocation in Internal SRAM */
#endif /* USER_VECT_TAB_ADDRESS */
}
 8000ad4:	bf00      	nop
 8000ad6:	46bd      	mov	sp, r7
 8000ad8:	f85d 7b04 	ldr.w	r7, [sp], #4
 8000adc:	4770      	bx	lr
 8000ade:	bf00      	nop
 8000ae0:	e000ed00 	.word	0xe000ed00

08000ae4 <Reset_Handler>:

    .section  .text.Reset_Handler
  .weak  Reset_Handler
  .type  Reset_Handler, %function
Reset_Handler:  
  ldr   sp, =_estack      /* set stack pointer */
 8000ae4:	f8df d034 	ldr.w	sp, [pc, #52]	; 8000b1c <LoopFillZerobss+0x12>

/* Copy the data segment initializers from flash to SRAM */  
  ldr r0, =_sdata
 8000ae8:	480d      	ldr	r0, [pc, #52]	; (8000b20 <LoopFillZerobss+0x16>)
  ldr r1, =_edata
 8000aea:	490e      	ldr	r1, [pc, #56]	; (8000b24 <LoopFillZerobss+0x1a>)
  ldr r2, =_sidata
 8000aec:	4a0e      	ldr	r2, [pc, #56]	; (8000b28 <LoopFillZerobss+0x1e>)
  movs r3, #0
 8000aee:	2300      	movs	r3, #0
  b LoopCopyDataInit
 8000af0:	e002      	b.n	8000af8 <LoopCopyDataInit>

08000af2 <CopyDataInit>:

CopyDataInit:
  ldr r4, [r2, r3]
 8000af2:	58d4      	ldr	r4, [r2, r3]
  str r4, [r0, r3]
 8000af4:	50c4      	str	r4, [r0, r3]
  adds r3, r3, #4
 8000af6:	3304      	adds	r3, #4

08000af8 <LoopCopyDataInit>:

LoopCopyDataInit:
  adds r4, r0, r3
 8000af8:	18c4      	adds	r4, r0, r3
  cmp r4, r1
 8000afa:	428c      	cmp	r4, r1
  bcc CopyDataInit
 8000afc:	d3f9      	bcc.n	8000af2 <CopyDataInit>
  
/* Zero fill the bss segment. */
  ldr r2, =_sbss
 8000afe:	4a0b      	ldr	r2, [pc, #44]	; (8000b2c <LoopFillZerobss+0x22>)
  ldr r4, =_ebss
 8000b00:	4c0b      	ldr	r4, [pc, #44]	; (8000b30 <LoopFillZerobss+0x26>)
  movs r3, #0
 8000b02:	2300      	movs	r3, #0
  b LoopFillZerobss
 8000b04:	e001      	b.n	8000b0a <LoopFillZerobss>

08000b06 <FillZerobss>:

FillZerobss:
  str  r3, [r2]
 8000b06:	6013      	str	r3, [r2, #0]
  adds r2, r2, #4
 8000b08:	3204      	adds	r2, #4

08000b0a <LoopFillZerobss>:

LoopFillZerobss:
  cmp r2, r4
 8000b0a:	42a2      	cmp	r2, r4
  bcc FillZerobss
 8000b0c:	d3fb      	bcc.n	8000b06 <FillZerobss>

/* Call the clock system initialization function.*/
  bl  SystemInit   
 8000b0e:	f7ff ffd7 	bl	8000ac0 <SystemInit>
/* Call static constructors */
    bl __libc_init_array
 8000b12:	f002 f9db 	bl	8002ecc <__libc_init_array>
/* Call the application's entry point.*/
  bl  main
 8000b16:	f7ff fcf3 	bl	8000500 <main>
  bx  lr    
 8000b1a:	4770      	bx	lr
  ldr   sp, =_estack      /* set stack pointer */
 8000b1c:	20020000 	.word	0x20020000
  ldr r0, =_sdata
 8000b20:	20000000 	.word	0x20000000
  ldr r1, =_edata
 8000b24:	2000001c 	.word	0x2000001c
  ldr r2, =_sidata
 8000b28:	08002f54 	.word	0x08002f54
  ldr r2, =_sbss
 8000b2c:	2000001c 	.word	0x2000001c
  ldr r4, =_ebss
 8000b30:	200000cc 	.word	0x200000cc

08000b34 <ADC_IRQHandler>:
 * @retval None       
*/
    .section  .text.Default_Handler,"ax",%progbits
Default_Handler:
Infinite_Loop:
  b  Infinite_Loop
 8000b34:	e7fe      	b.n	8000b34 <ADC_IRQHandler>
	...

08000b38 <HAL_Init>:
  *         need to ensure that the SysTick time base is always set to 1 millisecond
  *         to have correct HAL operation.
  * @retval HAL status
  */
HAL_StatusTypeDef HAL_Init(void)
{
 8000b38:	b580      	push	{r7, lr}
 8000b3a:	af00      	add	r7, sp, #0
  /* Configure Flash prefetch, Instruction cache, Data cache */ 
#if (INSTRUCTION_CACHE_ENABLE != 0U)
  __HAL_FLASH_INSTRUCTION_CACHE_ENABLE();
 8000b3c:	4b0e      	ldr	r3, [pc, #56]	; (8000b78 <HAL_Init+0x40>)
 8000b3e:	681b      	ldr	r3, [r3, #0]
 8000b40:	4a0d      	ldr	r2, [pc, #52]	; (8000b78 <HAL_Init+0x40>)
 8000b42:	f443 7300 	orr.w	r3, r3, #512	; 0x200
 8000b46:	6013      	str	r3, [r2, #0]
#endif /* INSTRUCTION_CACHE_ENABLE */

#if (DATA_CACHE_ENABLE != 0U)
  __HAL_FLASH_DATA_CACHE_ENABLE();
 8000b48:	4b0b      	ldr	r3, [pc, #44]	; (8000b78 <HAL_Init+0x40>)
 8000b4a:	681b      	ldr	r3, [r3, #0]
 8000b4c:	4a0a      	ldr	r2, [pc, #40]	; (8000b78 <HAL_Init+0x40>)
 8000b4e:	f443 6380 	orr.w	r3, r3, #1024	; 0x400
 8000b52:	6013      	str	r3, [r2, #0]
#endif /* DATA_CACHE_ENABLE */

#if (PREFETCH_ENABLE != 0U)
  __HAL_FLASH_PREFETCH_BUFFER_ENABLE();
 8000b54:	4b08      	ldr	r3, [pc, #32]	; (8000b78 <HAL_Init+0x40>)
 8000b56:	681b      	ldr	r3, [r3, #0]
 8000b58:	4a07      	ldr	r2, [pc, #28]	; (8000b78 <HAL_Init+0x40>)
 8000b5a:	f443 7380 	orr.w	r3, r3, #256	; 0x100
 8000b5e:	6013      	str	r3, [r2, #0]
#endif /* PREFETCH_ENABLE */

  /* Set Interrupt Group Priority */
  HAL_NVIC_SetPriorityGrouping(NVIC_PRIORITYGROUP_4);
 8000b60:	2003      	movs	r0, #3
 8000b62:	f000 f92b 	bl	8000dbc <HAL_NVIC_SetPriorityGrouping>

  /* Use systick as time base source and configure 1ms tick (default clock after Reset is HSI) */
  HAL_InitTick(TICK_INT_PRIORITY);
 8000b66:	2000      	movs	r0, #0
 8000b68:	f000 f808 	bl	8000b7c <HAL_InitTick>

  /* Init the low level hardware */
  HAL_MspInit();
 8000b6c:	f7ff feca 	bl	8000904 <HAL_MspInit>

  /* Return function status */
  return HAL_OK;
 8000b70:	2300      	movs	r3, #0
}
 8000b72:	4618      	mov	r0, r3
 8000b74:	bd80      	pop	{r7, pc}
 8000b76:	bf00      	nop
 8000b78:	40023c00 	.word	0x40023c00

08000b7c <HAL_InitTick>:
  *       implementation  in user file.
  * @param TickPriority Tick interrupt priority.
  * @retval HAL status
  */
__weak HAL_StatusTypeDef HAL_InitTick(uint32_t TickPriority)
{
 8000b7c:	b580      	push	{r7, lr}
 8000b7e:	b082      	sub	sp, #8
 8000b80:	af00      	add	r7, sp, #0
 8000b82:	6078      	str	r0, [r7, #4]
  /* Configure the SysTick to have interrupt in 1ms time basis*/
  if (HAL_SYSTICK_Config(SystemCoreClock / (1000U / uwTickFreq)) > 0U)
 8000b84:	4b12      	ldr	r3, [pc, #72]	; (8000bd0 <HAL_InitTick+0x54>)
 8000b86:	681a      	ldr	r2, [r3, #0]
 8000b88:	4b12      	ldr	r3, [pc, #72]	; (8000bd4 <HAL_InitTick+0x58>)
 8000b8a:	781b      	ldrb	r3, [r3, #0]
 8000b8c:	4619      	mov	r1, r3
 8000b8e:	f44f 737a 	mov.w	r3, #1000	; 0x3e8
 8000b92:	fbb3 f3f1 	udiv	r3, r3, r1
 8000b96:	fbb2 f3f3 	udiv	r3, r2, r3
 8000b9a:	4618      	mov	r0, r3
 8000b9c:	f000 f943 	bl	8000e26 <HAL_SYSTICK_Config>
 8000ba0:	4603      	mov	r3, r0
 8000ba2:	2b00      	cmp	r3, #0
 8000ba4:	d001      	beq.n	8000baa <HAL_InitTick+0x2e>
  {
    return HAL_ERROR;
 8000ba6:	2301      	movs	r3, #1
 8000ba8:	e00e      	b.n	8000bc8 <HAL_InitTick+0x4c>
  }

  /* Configure the SysTick IRQ priority */
  if (TickPriority < (1UL << __NVIC_PRIO_BITS))
 8000baa:	687b      	ldr	r3, [r7, #4]
 8000bac:	2b0f      	cmp	r3, #15
 8000bae:	d80a      	bhi.n	8000bc6 <HAL_InitTick+0x4a>
  {
    HAL_NVIC_SetPriority(SysTick_IRQn, TickPriority, 0U);
 8000bb0:	2200      	movs	r2, #0
 8000bb2:	6879      	ldr	r1, [r7, #4]
 8000bb4:	f04f 30ff 	mov.w	r0, #4294967295
 8000bb8:	f000 f90b 	bl	8000dd2 <HAL_NVIC_SetPriority>
    uwTickPrio = TickPriority;
 8000bbc:	4a06      	ldr	r2, [pc, #24]	; (8000bd8 <HAL_InitTick+0x5c>)
 8000bbe:	687b      	ldr	r3, [r7, #4]
 8000bc0:	6013      	str	r3, [r2, #0]
  {
    return HAL_ERROR;
  }

  /* Return function status */
  return HAL_OK;
 8000bc2:	2300      	movs	r3, #0
 8000bc4:	e000      	b.n	8000bc8 <HAL_InitTick+0x4c>
    return HAL_ERROR;
 8000bc6:	2301      	movs	r3, #1
}
 8000bc8:	4618      	mov	r0, r3
 8000bca:	3708      	adds	r7, #8
 8000bcc:	46bd      	mov	sp, r7
 8000bce:	bd80      	pop	{r7, pc}
 8000bd0:	20000010 	.word	0x20000010
 8000bd4:	20000018 	.word	0x20000018
 8000bd8:	20000014 	.word	0x20000014

08000bdc <HAL_IncTick>:
 * @note This function is declared as __weak to be overwritten in case of other 
  *      implementations in user file.
  * @retval None
  */
__weak void HAL_IncTick(void)
{
 8000bdc:	b480      	push	{r7}
 8000bde:	af00      	add	r7, sp, #0
  uwTick += uwTickFreq;
 8000be0:	4b06      	ldr	r3, [pc, #24]	; (8000bfc <HAL_IncTick+0x20>)
 8000be2:	781b      	ldrb	r3, [r3, #0]
 8000be4:	461a      	mov	r2, r3
 8000be6:	4b06      	ldr	r3, [pc, #24]	; (8000c00 <HAL_IncTick+0x24>)
 8000be8:	681b      	ldr	r3, [r3, #0]
 8000bea:	4413      	add	r3, r2
 8000bec:	4a04      	ldr	r2, [pc, #16]	; (8000c00 <HAL_IncTick+0x24>)
 8000bee:	6013      	str	r3, [r2, #0]
}
 8000bf0:	bf00      	nop
 8000bf2:	46bd      	mov	sp, r7
 8000bf4:	f85d 7b04 	ldr.w	r7, [sp], #4
 8000bf8:	4770      	bx	lr
 8000bfa:	bf00      	nop
 8000bfc:	20000018 	.word	0x20000018
 8000c00:	200000c8 	.word	0x200000c8

08000c04 <HAL_GetTick>:
  * @note This function is declared as __weak to be overwritten in case of other 
  *       implementations in user file.
  * @retval tick value
  */
__weak uint32_t HAL_GetTick(void)
{
 8000c04:	b480      	push	{r7}
 8000c06:	af00      	add	r7, sp, #0
  return uwTick;
 8000c08:	4b03      	ldr	r3, [pc, #12]	; (8000c18 <HAL_GetTick+0x14>)
 8000c0a:	681b      	ldr	r3, [r3, #0]
}
 8000c0c:	4618      	mov	r0, r3
 8000c0e:	46bd      	mov	sp, r7
 8000c10:	f85d 7b04 	ldr.w	r7, [sp], #4
 8000c14:	4770      	bx	lr
 8000c16:	bf00      	nop
 8000c18:	200000c8 	.word	0x200000c8

08000c1c <__NVIC_SetPriorityGrouping>:
           In case of a conflict between priority grouping and available
           priority bits (__NVIC_PRIO_BITS), the smallest possible priority group is set.
  \param [in]      PriorityGroup  Priority grouping field.
 */
__STATIC_INLINE void __NVIC_SetPriorityGrouping(uint32_t PriorityGroup)
{
 8000c1c:	b480      	push	{r7}
 8000c1e:	b085      	sub	sp, #20
 8000c20:	af00      	add	r7, sp, #0
 8000c22:	6078      	str	r0, [r7, #4]
  uint32_t reg_value;
  uint32_t PriorityGroupTmp = (PriorityGroup & (uint32_t)0x07UL);             /* only values 0..7 are used          */
 8000c24:	687b      	ldr	r3, [r7, #4]
 8000c26:	f003 0307 	and.w	r3, r3, #7
 8000c2a:	60fb      	str	r3, [r7, #12]

  reg_value  =  SCB->AIRCR;                                                   /* read old register configuration    */
 8000c2c:	4b0c      	ldr	r3, [pc, #48]	; (8000c60 <__NVIC_SetPriorityGrouping+0x44>)
 8000c2e:	68db      	ldr	r3, [r3, #12]
 8000c30:	60bb      	str	r3, [r7, #8]
  reg_value &= ~((uint32_t)(SCB_AIRCR_VECTKEY_Msk | SCB_AIRCR_PRIGROUP_Msk)); /* clear bits to change               */
 8000c32:	68ba      	ldr	r2, [r7, #8]
 8000c34:	f64f 03ff 	movw	r3, #63743	; 0xf8ff
 8000c38:	4013      	ands	r3, r2
 8000c3a:	60bb      	str	r3, [r7, #8]
  reg_value  =  (reg_value                                   |
                ((uint32_t)0x5FAUL << SCB_AIRCR_VECTKEY_Pos) |
                (PriorityGroupTmp << SCB_AIRCR_PRIGROUP_Pos)  );              /* Insert write key and priority group */
 8000c3c:	68fb      	ldr	r3, [r7, #12]
 8000c3e:	021a      	lsls	r2, r3, #8
                ((uint32_t)0x5FAUL << SCB_AIRCR_VECTKEY_Pos) |
 8000c40:	68bb      	ldr	r3, [r7, #8]
 8000c42:	4313      	orrs	r3, r2
  reg_value  =  (reg_value                                   |
 8000c44:	f043 63bf 	orr.w	r3, r3, #100139008	; 0x5f80000
 8000c48:	f443 3300 	orr.w	r3, r3, #131072	; 0x20000
 8000c4c:	60bb      	str	r3, [r7, #8]
  SCB->AIRCR =  reg_value;
 8000c4e:	4a04      	ldr	r2, [pc, #16]	; (8000c60 <__NVIC_SetPriorityGrouping+0x44>)
 8000c50:	68bb      	ldr	r3, [r7, #8]
 8000c52:	60d3      	str	r3, [r2, #12]
}
 8000c54:	bf00      	nop
 8000c56:	3714      	adds	r7, #20
 8000c58:	46bd      	mov	sp, r7
 8000c5a:	f85d 7b04 	ldr.w	r7, [sp], #4
 8000c5e:	4770      	bx	lr
 8000c60:	e000ed00 	.word	0xe000ed00

08000c64 <__NVIC_GetPriorityGrouping>:
  \brief   Get Priority Grouping
  \details Reads the priority grouping field from the NVIC Interrupt Controller.
  \return                Priority grouping field (SCB->AIRCR [10:8] PRIGROUP field).
 */
__STATIC_INLINE uint32_t __NVIC_GetPriorityGrouping(void)
{
 8000c64:	b480      	push	{r7}
 8000c66:	af00      	add	r7, sp, #0
  return ((uint32_t)((SCB->AIRCR & SCB_AIRCR_PRIGROUP_Msk) >> SCB_AIRCR_PRIGROUP_Pos));
 8000c68:	4b04      	ldr	r3, [pc, #16]	; (8000c7c <__NVIC_GetPriorityGrouping+0x18>)
 8000c6a:	68db      	ldr	r3, [r3, #12]
 8000c6c:	0a1b      	lsrs	r3, r3, #8
 8000c6e:	f003 0307 	and.w	r3, r3, #7
}
 8000c72:	4618      	mov	r0, r3
 8000c74:	46bd      	mov	sp, r7
 8000c76:	f85d 7b04 	ldr.w	r7, [sp], #4
 8000c7a:	4770      	bx	lr
 8000c7c:	e000ed00 	.word	0xe000ed00

08000c80 <__NVIC_EnableIRQ>:
  \details Enables a device specific interrupt in the NVIC interrupt controller.
  \param [in]      IRQn  Device specific interrupt number.
  \note    IRQn must not be negative.
 */
__STATIC_INLINE void __NVIC_EnableIRQ(IRQn_Type IRQn)
{
 8000c80:	b480      	push	{r7}
 8000c82:	b083      	sub	sp, #12
 8000c84:	af00      	add	r7, sp, #0
 8000c86:	4603      	mov	r3, r0
 8000c88:	71fb      	strb	r3, [r7, #7]
  if ((int32_t)(IRQn) >= 0)
 8000c8a:	f997 3007 	ldrsb.w	r3, [r7, #7]
 8000c8e:	2b00      	cmp	r3, #0
 8000c90:	db0b      	blt.n	8000caa <__NVIC_EnableIRQ+0x2a>
  {
    NVIC->ISER[(((uint32_t)IRQn) >> 5UL)] = (uint32_t)(1UL << (((uint32_t)IRQn) & 0x1FUL));
 8000c92:	79fb      	ldrb	r3, [r7, #7]
 8000c94:	f003 021f 	and.w	r2, r3, #31
 8000c98:	4907      	ldr	r1, [pc, #28]	; (8000cb8 <__NVIC_EnableIRQ+0x38>)
 8000c9a:	f997 3007 	ldrsb.w	r3, [r7, #7]
 8000c9e:	095b      	lsrs	r3, r3, #5
 8000ca0:	2001      	movs	r0, #1
 8000ca2:	fa00 f202 	lsl.w	r2, r0, r2
 8000ca6:	f841 2023 	str.w	r2, [r1, r3, lsl #2]
  }
}
 8000caa:	bf00      	nop
 8000cac:	370c      	adds	r7, #12
 8000cae:	46bd      	mov	sp, r7
 8000cb0:	f85d 7b04 	ldr.w	r7, [sp], #4
 8000cb4:	4770      	bx	lr
 8000cb6:	bf00      	nop
 8000cb8:	e000e100 	.word	0xe000e100

08000cbc <__NVIC_SetPriority>:
  \param [in]      IRQn  Interrupt number.
  \param [in]  priority  Priority to set.
  \note    The priority cannot be set for every processor exception.
 */
__STATIC_INLINE void __NVIC_SetPriority(IRQn_Type IRQn, uint32_t priority)
{
 8000cbc:	b480      	push	{r7}
 8000cbe:	b083      	sub	sp, #12
 8000cc0:	af00      	add	r7, sp, #0
 8000cc2:	4603      	mov	r3, r0
 8000cc4:	6039      	str	r1, [r7, #0]
 8000cc6:	71fb      	strb	r3, [r7, #7]
  if ((int32_t)(IRQn) >= 0)
 8000cc8:	f997 3007 	ldrsb.w	r3, [r7, #7]
 8000ccc:	2b00      	cmp	r3, #0
 8000cce:	db0a      	blt.n	8000ce6 <__NVIC_SetPriority+0x2a>
  {
    NVIC->IP[((uint32_t)IRQn)]               = (uint8_t)((priority << (8U - __NVIC_PRIO_BITS)) & (uint32_t)0xFFUL);
 8000cd0:	683b      	ldr	r3, [r7, #0]
 8000cd2:	b2da      	uxtb	r2, r3
 8000cd4:	490c      	ldr	r1, [pc, #48]	; (8000d08 <__NVIC_SetPriority+0x4c>)
 8000cd6:	f997 3007 	ldrsb.w	r3, [r7, #7]
 8000cda:	0112      	lsls	r2, r2, #4
 8000cdc:	b2d2      	uxtb	r2, r2
 8000cde:	440b      	add	r3, r1
 8000ce0:	f883 2300 	strb.w	r2, [r3, #768]	; 0x300
  }
  else
  {
    SCB->SHP[(((uint32_t)IRQn) & 0xFUL)-4UL] = (uint8_t)((priority << (8U - __NVIC_PRIO_BITS)) & (uint32_t)0xFFUL);
  }
}
 8000ce4:	e00a      	b.n	8000cfc <__NVIC_SetPriority+0x40>
    SCB->SHP[(((uint32_t)IRQn) & 0xFUL)-4UL] = (uint8_t)((priority << (8U - __NVIC_PRIO_BITS)) & (uint32_t)0xFFUL);
 8000ce6:	683b      	ldr	r3, [r7, #0]
 8000ce8:	b2da      	uxtb	r2, r3
 8000cea:	4908      	ldr	r1, [pc, #32]	; (8000d0c <__NVIC_SetPriority+0x50>)
 8000cec:	79fb      	ldrb	r3, [r7, #7]
 8000cee:	f003 030f 	and.w	r3, r3, #15
 8000cf2:	3b04      	subs	r3, #4
 8000cf4:	0112      	lsls	r2, r2, #4
 8000cf6:	b2d2      	uxtb	r2, r2
 8000cf8:	440b      	add	r3, r1
 8000cfa:	761a      	strb	r2, [r3, #24]
}
 8000cfc:	bf00      	nop
 8000cfe:	370c      	adds	r7, #12
 8000d00:	46bd      	mov	sp, r7
 8000d02:	f85d 7b04 	ldr.w	r7, [sp], #4
 8000d06:	4770      	bx	lr
 8000d08:	e000e100 	.word	0xe000e100
 8000d0c:	e000ed00 	.word	0xe000ed00

08000d10 <NVIC_EncodePriority>:
  \param [in]   PreemptPriority  Preemptive priority value (starting from 0).
  \param [in]       SubPriority  Subpriority value (starting from 0).
  \return                        Encoded priority. Value can be used in the function \ref NVIC_SetPriority().
 */
__STATIC_INLINE uint32_t NVIC_EncodePriority (uint32_t PriorityGroup, uint32_t PreemptPriority, uint32_t SubPriority)
{
 8000d10:	b480      	push	{r7}
 8000d12:	b089      	sub	sp, #36	; 0x24
 8000d14:	af00      	add	r7, sp, #0
 8000d16:	60f8      	str	r0, [r7, #12]
 8000d18:	60b9      	str	r1, [r7, #8]
 8000d1a:	607a      	str	r2, [r7, #4]
  uint32_t PriorityGroupTmp = (PriorityGroup & (uint32_t)0x07UL);   /* only values 0..7 are used          */
 8000d1c:	68fb      	ldr	r3, [r7, #12]
 8000d1e:	f003 0307 	and.w	r3, r3, #7
 8000d22:	61fb      	str	r3, [r7, #28]
  uint32_t PreemptPriorityBits;
  uint32_t SubPriorityBits;

  PreemptPriorityBits = ((7UL - PriorityGroupTmp) > (uint32_t)(__NVIC_PRIO_BITS)) ? (uint32_t)(__NVIC_PRIO_BITS) : (uint32_t)(7UL - PriorityGroupTmp);
 8000d24:	69fb      	ldr	r3, [r7, #28]
 8000d26:	f1c3 0307 	rsb	r3, r3, #7
 8000d2a:	2b04      	cmp	r3, #4
 8000d2c:	bf28      	it	cs
 8000d2e:	2304      	movcs	r3, #4
 8000d30:	61bb      	str	r3, [r7, #24]
  SubPriorityBits     = ((PriorityGroupTmp + (uint32_t)(__NVIC_PRIO_BITS)) < (uint32_t)7UL) ? (uint32_t)0UL : (uint32_t)((PriorityGroupTmp - 7UL) + (uint32_t)(__NVIC_PRIO_BITS));
 8000d32:	69fb      	ldr	r3, [r7, #28]
 8000d34:	3304      	adds	r3, #4
 8000d36:	2b06      	cmp	r3, #6
 8000d38:	d902      	bls.n	8000d40 <NVIC_EncodePriority+0x30>
 8000d3a:	69fb      	ldr	r3, [r7, #28]
 8000d3c:	3b03      	subs	r3, #3
 8000d3e:	e000      	b.n	8000d42 <NVIC_EncodePriority+0x32>
 8000d40:	2300      	movs	r3, #0
 8000d42:	617b      	str	r3, [r7, #20]

  return (
           ((PreemptPriority & (uint32_t)((1UL << (PreemptPriorityBits)) - 1UL)) << SubPriorityBits) |
 8000d44:	f04f 32ff 	mov.w	r2, #4294967295
 8000d48:	69bb      	ldr	r3, [r7, #24]
 8000d4a:	fa02 f303 	lsl.w	r3, r2, r3
 8000d4e:	43da      	mvns	r2, r3
 8000d50:	68bb      	ldr	r3, [r7, #8]
 8000d52:	401a      	ands	r2, r3
 8000d54:	697b      	ldr	r3, [r7, #20]
 8000d56:	409a      	lsls	r2, r3
           ((SubPriority     & (uint32_t)((1UL << (SubPriorityBits    )) - 1UL)))
 8000d58:	f04f 31ff 	mov.w	r1, #4294967295
 8000d5c:	697b      	ldr	r3, [r7, #20]
 8000d5e:	fa01 f303 	lsl.w	r3, r1, r3
 8000d62:	43d9      	mvns	r1, r3
 8000d64:	687b      	ldr	r3, [r7, #4]
 8000d66:	400b      	ands	r3, r1
           ((PreemptPriority & (uint32_t)((1UL << (PreemptPriorityBits)) - 1UL)) << SubPriorityBits) |
 8000d68:	4313      	orrs	r3, r2
         );
}
 8000d6a:	4618      	mov	r0, r3
 8000d6c:	3724      	adds	r7, #36	; 0x24
 8000d6e:	46bd      	mov	sp, r7
 8000d70:	f85d 7b04 	ldr.w	r7, [sp], #4
 8000d74:	4770      	bx	lr
	...

08000d78 <SysTick_Config>:
  \note    When the variable <b>__Vendor_SysTickConfig</b> is set to 1, then the
           function <b>SysTick_Config</b> is not included. In this case, the file <b><i>device</i>.h</b>
           must contain a vendor-specific implementation of this function.
 */
__STATIC_INLINE uint32_t SysTick_Config(uint32_t ticks)
{
 8000d78:	b580      	push	{r7, lr}
 8000d7a:	b082      	sub	sp, #8
 8000d7c:	af00      	add	r7, sp, #0
 8000d7e:	6078      	str	r0, [r7, #4]
  if ((ticks - 1UL) > SysTick_LOAD_RELOAD_Msk)
 8000d80:	687b      	ldr	r3, [r7, #4]
 8000d82:	3b01      	subs	r3, #1
 8000d84:	f1b3 7f80 	cmp.w	r3, #16777216	; 0x1000000
 8000d88:	d301      	bcc.n	8000d8e <SysTick_Config+0x16>
  {
    return (1UL);                                                   /* Reload value impossible */
 8000d8a:	2301      	movs	r3, #1
 8000d8c:	e00f      	b.n	8000dae <SysTick_Config+0x36>
  }

  SysTick->LOAD  = (uint32_t)(ticks - 1UL);                         /* set reload register */
 8000d8e:	4a0a      	ldr	r2, [pc, #40]	; (8000db8 <SysTick_Config+0x40>)
 8000d90:	687b      	ldr	r3, [r7, #4]
 8000d92:	3b01      	subs	r3, #1
 8000d94:	6053      	str	r3, [r2, #4]
  NVIC_SetPriority (SysTick_IRQn, (1UL << __NVIC_PRIO_BITS) - 1UL); /* set Priority for Systick Interrupt */
 8000d96:	210f      	movs	r1, #15
 8000d98:	f04f 30ff 	mov.w	r0, #4294967295
 8000d9c:	f7ff ff8e 	bl	8000cbc <__NVIC_SetPriority>
  SysTick->VAL   = 0UL;                                             /* Load the SysTick Counter Value */
 8000da0:	4b05      	ldr	r3, [pc, #20]	; (8000db8 <SysTick_Config+0x40>)
 8000da2:	2200      	movs	r2, #0
 8000da4:	609a      	str	r2, [r3, #8]
  SysTick->CTRL  = SysTick_CTRL_CLKSOURCE_Msk |
 8000da6:	4b04      	ldr	r3, [pc, #16]	; (8000db8 <SysTick_Config+0x40>)
 8000da8:	2207      	movs	r2, #7
 8000daa:	601a      	str	r2, [r3, #0]
                   SysTick_CTRL_TICKINT_Msk   |
                   SysTick_CTRL_ENABLE_Msk;                         /* Enable SysTick IRQ and SysTick Timer */
  return (0UL);                                                     /* Function successful */
 8000dac:	2300      	movs	r3, #0
}
 8000dae:	4618      	mov	r0, r3
 8000db0:	3708      	adds	r7, #8
 8000db2:	46bd      	mov	sp, r7
 8000db4:	bd80      	pop	{r7, pc}
 8000db6:	bf00      	nop
 8000db8:	e000e010 	.word	0xe000e010

08000dbc <HAL_NVIC_SetPriorityGrouping>:
  * @note   When the NVIC_PriorityGroup_0 is selected, IRQ preemption is no more possible. 
  *         The pending IRQ priority will be managed only by the subpriority. 
  * @retval None
  */
void HAL_NVIC_SetPriorityGrouping(uint32_t PriorityGroup)
{
 8000dbc:	b580      	push	{r7, lr}
 8000dbe:	b082      	sub	sp, #8
 8000dc0:	af00      	add	r7, sp, #0
 8000dc2:	6078      	str	r0, [r7, #4]
  /* Check the parameters */
  assert_param(IS_NVIC_PRIORITY_GROUP(PriorityGroup));
  
  /* Set the PRIGROUP[10:8] bits according to the PriorityGroup parameter value */
  NVIC_SetPriorityGrouping(PriorityGroup);
 8000dc4:	6878      	ldr	r0, [r7, #4]
 8000dc6:	f7ff ff29 	bl	8000c1c <__NVIC_SetPriorityGrouping>
}
 8000dca:	bf00      	nop
 8000dcc:	3708      	adds	r7, #8
 8000dce:	46bd      	mov	sp, r7
 8000dd0:	bd80      	pop	{r7, pc}

08000dd2 <HAL_NVIC_SetPriority>:
  *         This parameter can be a value between 0 and 15
  *         A lower priority value indicates a higher priority.          
  * @retval None
  */
void HAL_NVIC_SetPriority(IRQn_Type IRQn, uint32_t PreemptPriority, uint32_t SubPriority)
{ 
 8000dd2:	b580      	push	{r7, lr}
 8000dd4:	b086      	sub	sp, #24
 8000dd6:	af00      	add	r7, sp, #0
 8000dd8:	4603      	mov	r3, r0
 8000dda:	60b9      	str	r1, [r7, #8]
 8000ddc:	607a      	str	r2, [r7, #4]
 8000dde:	73fb      	strb	r3, [r7, #15]
  uint32_t prioritygroup = 0x00U;
 8000de0:	2300      	movs	r3, #0
 8000de2:	617b      	str	r3, [r7, #20]
  
  /* Check the parameters */
  assert_param(IS_NVIC_SUB_PRIORITY(SubPriority));
  assert_param(IS_NVIC_PREEMPTION_PRIORITY(PreemptPriority));
  
  prioritygroup = NVIC_GetPriorityGrouping();
 8000de4:	f7ff ff3e 	bl	8000c64 <__NVIC_GetPriorityGrouping>
 8000de8:	6178      	str	r0, [r7, #20]
  
  NVIC_SetPriority(IRQn, NVIC_EncodePriority(prioritygroup, PreemptPriority, SubPriority));
 8000dea:	687a      	ldr	r2, [r7, #4]
 8000dec:	68b9      	ldr	r1, [r7, #8]
 8000dee:	6978      	ldr	r0, [r7, #20]
 8000df0:	f7ff ff8e 	bl	8000d10 <NVIC_EncodePriority>
 8000df4:	4602      	mov	r2, r0
 8000df6:	f997 300f 	ldrsb.w	r3, [r7, #15]
 8000dfa:	4611      	mov	r1, r2
 8000dfc:	4618      	mov	r0, r3
 8000dfe:	f7ff ff5d 	bl	8000cbc <__NVIC_SetPriority>
}
 8000e02:	bf00      	nop
 8000e04:	3718      	adds	r7, #24
 8000e06:	46bd      	mov	sp, r7
 8000e08:	bd80      	pop	{r7, pc}

08000e0a <HAL_NVIC_EnableIRQ>:
  *         This parameter can be an enumerator of IRQn_Type enumeration
  *         (For the complete STM32 Devices IRQ Channels list, please refer to the appropriate CMSIS device file (stm32f4xxxx.h))
  * @retval None
  */
void HAL_NVIC_EnableIRQ(IRQn_Type IRQn)
{
 8000e0a:	b580      	push	{r7, lr}
 8000e0c:	b082      	sub	sp, #8
 8000e0e:	af00      	add	r7, sp, #0
 8000e10:	4603      	mov	r3, r0
 8000e12:	71fb      	strb	r3, [r7, #7]
  /* Check the parameters */
  assert_param(IS_NVIC_DEVICE_IRQ(IRQn));
  
  /* Enable interrupt */
  NVIC_EnableIRQ(IRQn);
 8000e14:	f997 3007 	ldrsb.w	r3, [r7, #7]
 8000e18:	4618      	mov	r0, r3
 8000e1a:	f7ff ff31 	bl	8000c80 <__NVIC_EnableIRQ>
}
 8000e1e:	bf00      	nop
 8000e20:	3708      	adds	r7, #8
 8000e22:	46bd      	mov	sp, r7
 8000e24:	bd80      	pop	{r7, pc}

08000e26 <HAL_SYSTICK_Config>:
  * @param  TicksNumb Specifies the ticks Number of ticks between two interrupts.
  * @retval status:  - 0  Function succeeded.
  *                  - 1  Function failed.
  */
uint32_t HAL_SYSTICK_Config(uint32_t TicksNumb)
{
 8000e26:	b580      	push	{r7, lr}
 8000e28:	b082      	sub	sp, #8
 8000e2a:	af00      	add	r7, sp, #0
 8000e2c:	6078      	str	r0, [r7, #4]
   return SysTick_Config(TicksNumb);
 8000e2e:	6878      	ldr	r0, [r7, #4]
 8000e30:	f7ff ffa2 	bl	8000d78 <SysTick_Config>
 8000e34:	4603      	mov	r3, r0
}
 8000e36:	4618      	mov	r0, r3
 8000e38:	3708      	adds	r7, #8
 8000e3a:	46bd      	mov	sp, r7
 8000e3c:	bd80      	pop	{r7, pc}
	...

08000e40 <HAL_SYSTICK_CLKSourceConfig>:
  *             @arg SYSTICK_CLKSOURCE_HCLK_DIV8: AHB clock divided by 8 selected as SysTick clock source.
  *             @arg SYSTICK_CLKSOURCE_HCLK: AHB clock selected as SysTick clock source.
  * @retval None
  */
void HAL_SYSTICK_CLKSourceConfig(uint32_t CLKSource)
{
 8000e40:	b480      	push	{r7}
 8000e42:	b083      	sub	sp, #12
 8000e44:	af00      	add	r7, sp, #0
 8000e46:	6078      	str	r0, [r7, #4]
  /* Check the parameters */
  assert_param(IS_SYSTICK_CLK_SOURCE(CLKSource));
  if (CLKSource == SYSTICK_CLKSOURCE_HCLK)
 8000e48:	687b      	ldr	r3, [r7, #4]
 8000e4a:	2b04      	cmp	r3, #4
 8000e4c:	d106      	bne.n	8000e5c <HAL_SYSTICK_CLKSourceConfig+0x1c>
  {
    SysTick->CTRL |= SYSTICK_CLKSOURCE_HCLK;
 8000e4e:	4b09      	ldr	r3, [pc, #36]	; (8000e74 <HAL_SYSTICK_CLKSourceConfig+0x34>)
 8000e50:	681b      	ldr	r3, [r3, #0]
 8000e52:	4a08      	ldr	r2, [pc, #32]	; (8000e74 <HAL_SYSTICK_CLKSourceConfig+0x34>)
 8000e54:	f043 0304 	orr.w	r3, r3, #4
 8000e58:	6013      	str	r3, [r2, #0]
  }
  else
  {
    SysTick->CTRL &= ~SYSTICK_CLKSOURCE_HCLK;
  }
}
 8000e5a:	e005      	b.n	8000e68 <HAL_SYSTICK_CLKSourceConfig+0x28>
    SysTick->CTRL &= ~SYSTICK_CLKSOURCE_HCLK;
 8000e5c:	4b05      	ldr	r3, [pc, #20]	; (8000e74 <HAL_SYSTICK_CLKSourceConfig+0x34>)
 8000e5e:	681b      	ldr	r3, [r3, #0]
 8000e60:	4a04      	ldr	r2, [pc, #16]	; (8000e74 <HAL_SYSTICK_CLKSourceConfig+0x34>)
 8000e62:	f023 0304 	bic.w	r3, r3, #4
 8000e66:	6013      	str	r3, [r2, #0]
}
 8000e68:	bf00      	nop
 8000e6a:	370c      	adds	r7, #12
 8000e6c:	46bd      	mov	sp, r7
 8000e6e:	f85d 7b04 	ldr.w	r7, [sp], #4
 8000e72:	4770      	bx	lr
 8000e74:	e000e010 	.word	0xe000e010

08000e78 <HAL_SYSTICK_IRQHandler>:
/**
  * @brief  This function handles SYSTICK interrupt request.
  * @retval None
  */
void HAL_SYSTICK_IRQHandler(void)
{
 8000e78:	b580      	push	{r7, lr}
 8000e7a:	af00      	add	r7, sp, #0
  HAL_SYSTICK_Callback();
 8000e7c:	f000 f802 	bl	8000e84 <HAL_SYSTICK_Callback>
}
 8000e80:	bf00      	nop
 8000e82:	bd80      	pop	{r7, pc}

08000e84 <HAL_SYSTICK_Callback>:
/**
  * @brief  SYSTICK callback.
  * @retval None
  */
__weak void HAL_SYSTICK_Callback(void)
{
 8000e84:	b480      	push	{r7}
 8000e86:	af00      	add	r7, sp, #0
  /* NOTE : This function Should not be modified, when the callback is needed,
            the HAL_SYSTICK_Callback could be implemented in the user file
   */
}
 8000e88:	bf00      	nop
 8000e8a:	46bd      	mov	sp, r7
 8000e8c:	f85d 7b04 	ldr.w	r7, [sp], #4
 8000e90:	4770      	bx	lr
	...

08000e94 <HAL_GPIO_Init>:
  * @param  GPIO_Init pointer to a GPIO_InitTypeDef structure that contains
  *         the configuration information for the specified GPIO peripheral.
  * @retval None
  */
void HAL_GPIO_Init(GPIO_TypeDef  *GPIOx, GPIO_InitTypeDef *GPIO_Init)
{
 8000e94:	b480      	push	{r7}
 8000e96:	b089      	sub	sp, #36	; 0x24
 8000e98:	af00      	add	r7, sp, #0
 8000e9a:	6078      	str	r0, [r7, #4]
 8000e9c:	6039      	str	r1, [r7, #0]
  uint32_t position;
  uint32_t ioposition = 0x00U;
 8000e9e:	2300      	movs	r3, #0
 8000ea0:	617b      	str	r3, [r7, #20]
  uint32_t iocurrent = 0x00U;
 8000ea2:	2300      	movs	r3, #0
 8000ea4:	613b      	str	r3, [r7, #16]
  uint32_t temp = 0x00U;
 8000ea6:	2300      	movs	r3, #0
 8000ea8:	61bb      	str	r3, [r7, #24]
  assert_param(IS_GPIO_ALL_INSTANCE(GPIOx));
  assert_param(IS_GPIO_PIN(GPIO_Init->Pin));
  assert_param(IS_GPIO_MODE(GPIO_Init->Mode));

  /* Configure the port pins */
  for(position = 0U; position < GPIO_NUMBER; position++)
 8000eaa:	2300      	movs	r3, #0
 8000eac:	61fb      	str	r3, [r7, #28]
 8000eae:	e165      	b.n	800117c <HAL_GPIO_Init+0x2e8>
  {
    /* Get the IO position */
    ioposition = 0x01U << position;
 8000eb0:	2201      	movs	r2, #1
 8000eb2:	69fb      	ldr	r3, [r7, #28]
 8000eb4:	fa02 f303 	lsl.w	r3, r2, r3
 8000eb8:	617b      	str	r3, [r7, #20]
    /* Get the current IO position */
    iocurrent = (uint32_t)(GPIO_Init->Pin) & ioposition;
 8000eba:	683b      	ldr	r3, [r7, #0]
 8000ebc:	681b      	ldr	r3, [r3, #0]
 8000ebe:	697a      	ldr	r2, [r7, #20]
 8000ec0:	4013      	ands	r3, r2
 8000ec2:	613b      	str	r3, [r7, #16]

    if(iocurrent == ioposition)
 8000ec4:	693a      	ldr	r2, [r7, #16]
 8000ec6:	697b      	ldr	r3, [r7, #20]
 8000ec8:	429a      	cmp	r2, r3
 8000eca:	f040 8154 	bne.w	8001176 <HAL_GPIO_Init+0x2e2>
    {
      /*--------------------- GPIO Mode Configuration ------------------------*/
      /* In case of Output or Alternate function mode selection */
      if(((GPIO_Init->Mode & GPIO_MODE) == MODE_OUTPUT) || \
 8000ece:	683b      	ldr	r3, [r7, #0]
 8000ed0:	685b      	ldr	r3, [r3, #4]
 8000ed2:	f003 0303 	and.w	r3, r3, #3
 8000ed6:	2b01      	cmp	r3, #1
 8000ed8:	d005      	beq.n	8000ee6 <HAL_GPIO_Init+0x52>
          (GPIO_Init->Mode & GPIO_MODE) == MODE_AF)
 8000eda:	683b      	ldr	r3, [r7, #0]
 8000edc:	685b      	ldr	r3, [r3, #4]
 8000ede:	f003 0303 	and.w	r3, r3, #3
      if(((GPIO_Init->Mode & GPIO_MODE) == MODE_OUTPUT) || \
 8000ee2:	2b02      	cmp	r3, #2
 8000ee4:	d130      	bne.n	8000f48 <HAL_GPIO_Init+0xb4>
      {
        /* Check the Speed parameter */
        assert_param(IS_GPIO_SPEED(GPIO_Init->Speed));
        /* Configure the IO Speed */
        temp = GPIOx->OSPEEDR; 
 8000ee6:	687b      	ldr	r3, [r7, #4]
 8000ee8:	689b      	ldr	r3, [r3, #8]
 8000eea:	61bb      	str	r3, [r7, #24]
        temp &= ~(GPIO_OSPEEDER_OSPEEDR0 << (position * 2U));
 8000eec:	69fb      	ldr	r3, [r7, #28]
 8000eee:	005b      	lsls	r3, r3, #1
 8000ef0:	2203      	movs	r2, #3
 8000ef2:	fa02 f303 	lsl.w	r3, r2, r3
 8000ef6:	43db      	mvns	r3, r3
 8000ef8:	69ba      	ldr	r2, [r7, #24]
 8000efa:	4013      	ands	r3, r2
 8000efc:	61bb      	str	r3, [r7, #24]
        temp |= (GPIO_Init->Speed << (position * 2U));
 8000efe:	683b      	ldr	r3, [r7, #0]
 8000f00:	68da      	ldr	r2, [r3, #12]
 8000f02:	69fb      	ldr	r3, [r7, #28]
 8000f04:	005b      	lsls	r3, r3, #1
 8000f06:	fa02 f303 	lsl.w	r3, r2, r3
 8000f0a:	69ba      	ldr	r2, [r7, #24]
 8000f0c:	4313      	orrs	r3, r2
 8000f0e:	61bb      	str	r3, [r7, #24]
        GPIOx->OSPEEDR = temp;
 8000f10:	687b      	ldr	r3, [r7, #4]
 8000f12:	69ba      	ldr	r2, [r7, #24]
 8000f14:	609a      	str	r2, [r3, #8]

        /* Configure the IO Output Type */
        temp = GPIOx->OTYPER;
 8000f16:	687b      	ldr	r3, [r7, #4]
 8000f18:	685b      	ldr	r3, [r3, #4]
 8000f1a:	61bb      	str	r3, [r7, #24]
        temp &= ~(GPIO_OTYPER_OT_0 << position) ;
 8000f1c:	2201      	movs	r2, #1
 8000f1e:	69fb      	ldr	r3, [r7, #28]
 8000f20:	fa02 f303 	lsl.w	r3, r2, r3
 8000f24:	43db      	mvns	r3, r3
 8000f26:	69ba      	ldr	r2, [r7, #24]
 8000f28:	4013      	ands	r3, r2
 8000f2a:	61bb      	str	r3, [r7, #24]
        temp |= (((GPIO_Init->Mode & OUTPUT_TYPE) >> OUTPUT_TYPE_Pos) << position);
 8000f2c:	683b      	ldr	r3, [r7, #0]
 8000f2e:	685b      	ldr	r3, [r3, #4]
 8000f30:	091b      	lsrs	r3, r3, #4
 8000f32:	f003 0201 	and.w	r2, r3, #1
 8000f36:	69fb      	ldr	r3, [r7, #28]
 8000f38:	fa02 f303 	lsl.w	r3, r2, r3
 8000f3c:	69ba      	ldr	r2, [r7, #24]
 8000f3e:	4313      	orrs	r3, r2
 8000f40:	61bb      	str	r3, [r7, #24]
        GPIOx->OTYPER = temp;
 8000f42:	687b      	ldr	r3, [r7, #4]
 8000f44:	69ba      	ldr	r2, [r7, #24]
 8000f46:	605a      	str	r2, [r3, #4]
       }

      if((GPIO_Init->Mode & GPIO_MODE) != MODE_ANALOG)
 8000f48:	683b      	ldr	r3, [r7, #0]
 8000f4a:	685b      	ldr	r3, [r3, #4]
 8000f4c:	f003 0303 	and.w	r3, r3, #3
 8000f50:	2b03      	cmp	r3, #3
 8000f52:	d017      	beq.n	8000f84 <HAL_GPIO_Init+0xf0>
      {
        /* Check the parameters */
        assert_param(IS_GPIO_PULL(GPIO_Init->Pull));
        
        /* Activate the Pull-up or Pull down resistor for the current IO */
        temp = GPIOx->PUPDR;
 8000f54:	687b      	ldr	r3, [r7, #4]
 8000f56:	68db      	ldr	r3, [r3, #12]
 8000f58:	61bb      	str	r3, [r7, #24]
        temp &= ~(GPIO_PUPDR_PUPDR0 << (position * 2U));
 8000f5a:	69fb      	ldr	r3, [r7, #28]
 8000f5c:	005b      	lsls	r3, r3, #1
 8000f5e:	2203      	movs	r2, #3
 8000f60:	fa02 f303 	lsl.w	r3, r2, r3
 8000f64:	43db      	mvns	r3, r3
 8000f66:	69ba      	ldr	r2, [r7, #24]
 8000f68:	4013      	ands	r3, r2
 8000f6a:	61bb      	str	r3, [r7, #24]
        temp |= ((GPIO_Init->Pull) << (position * 2U));
 8000f6c:	683b      	ldr	r3, [r7, #0]
 8000f6e:	689a      	ldr	r2, [r3, #8]
 8000f70:	69fb      	ldr	r3, [r7, #28]
 8000f72:	005b      	lsls	r3, r3, #1
 8000f74:	fa02 f303 	lsl.w	r3, r2, r3
 8000f78:	69ba      	ldr	r2, [r7, #24]
 8000f7a:	4313      	orrs	r3, r2
 8000f7c:	61bb      	str	r3, [r7, #24]
        GPIOx->PUPDR = temp;
 8000f7e:	687b      	ldr	r3, [r7, #4]
 8000f80:	69ba      	ldr	r2, [r7, #24]
 8000f82:	60da      	str	r2, [r3, #12]
      }

      /* In case of Alternate function mode selection */
      if((GPIO_Init->Mode & GPIO_MODE) == MODE_AF)
 8000f84:	683b      	ldr	r3, [r7, #0]
 8000f86:	685b      	ldr	r3, [r3, #4]
 8000f88:	f003 0303 	and.w	r3, r3, #3
 8000f8c:	2b02      	cmp	r3, #2
 8000f8e:	d123      	bne.n	8000fd8 <HAL_GPIO_Init+0x144>
      {
        /* Check the Alternate function parameter */
        assert_param(IS_GPIO_AF(GPIO_Init->Alternate));
        /* Configure Alternate function mapped with the current IO */
        temp = GPIOx->AFR[position >> 3U];
 8000f90:	69fb      	ldr	r3, [r7, #28]
 8000f92:	08da      	lsrs	r2, r3, #3
 8000f94:	687b      	ldr	r3, [r7, #4]
 8000f96:	3208      	adds	r2, #8
 8000f98:	f853 3022 	ldr.w	r3, [r3, r2, lsl #2]
 8000f9c:	61bb      	str	r3, [r7, #24]
        temp &= ~(0xFU << ((uint32_t)(position & 0x07U) * 4U)) ;
 8000f9e:	69fb      	ldr	r3, [r7, #28]
 8000fa0:	f003 0307 	and.w	r3, r3, #7
 8000fa4:	009b      	lsls	r3, r3, #2
 8000fa6:	220f      	movs	r2, #15
 8000fa8:	fa02 f303 	lsl.w	r3, r2, r3
 8000fac:	43db      	mvns	r3, r3
 8000fae:	69ba      	ldr	r2, [r7, #24]
 8000fb0:	4013      	ands	r3, r2
 8000fb2:	61bb      	str	r3, [r7, #24]
        temp |= ((uint32_t)(GPIO_Init->Alternate) << (((uint32_t)position & 0x07U) * 4U));
 8000fb4:	683b      	ldr	r3, [r7, #0]
 8000fb6:	691a      	ldr	r2, [r3, #16]
 8000fb8:	69fb      	ldr	r3, [r7, #28]
 8000fba:	f003 0307 	and.w	r3, r3, #7
 8000fbe:	009b      	lsls	r3, r3, #2
 8000fc0:	fa02 f303 	lsl.w	r3, r2, r3
 8000fc4:	69ba      	ldr	r2, [r7, #24]
 8000fc6:	4313      	orrs	r3, r2
 8000fc8:	61bb      	str	r3, [r7, #24]
        GPIOx->AFR[position >> 3U] = temp;
 8000fca:	69fb      	ldr	r3, [r7, #28]
 8000fcc:	08da      	lsrs	r2, r3, #3
 8000fce:	687b      	ldr	r3, [r7, #4]
 8000fd0:	3208      	adds	r2, #8
 8000fd2:	69b9      	ldr	r1, [r7, #24]
 8000fd4:	f843 1022 	str.w	r1, [r3, r2, lsl #2]
      }

      /* Configure IO Direction mode (Input, Output, Alternate or Analog) */
      temp = GPIOx->MODER;
 8000fd8:	687b      	ldr	r3, [r7, #4]
 8000fda:	681b      	ldr	r3, [r3, #0]
 8000fdc:	61bb      	str	r3, [r7, #24]
      temp &= ~(GPIO_MODER_MODER0 << (position * 2U));
 8000fde:	69fb      	ldr	r3, [r7, #28]
 8000fe0:	005b      	lsls	r3, r3, #1
 8000fe2:	2203      	movs	r2, #3
 8000fe4:	fa02 f303 	lsl.w	r3, r2, r3
 8000fe8:	43db      	mvns	r3, r3
 8000fea:	69ba      	ldr	r2, [r7, #24]
 8000fec:	4013      	ands	r3, r2
 8000fee:	61bb      	str	r3, [r7, #24]
      temp |= ((GPIO_Init->Mode & GPIO_MODE) << (position * 2U));
 8000ff0:	683b      	ldr	r3, [r7, #0]
 8000ff2:	685b      	ldr	r3, [r3, #4]
 8000ff4:	f003 0203 	and.w	r2, r3, #3
 8000ff8:	69fb      	ldr	r3, [r7, #28]
 8000ffa:	005b      	lsls	r3, r3, #1
 8000ffc:	fa02 f303 	lsl.w	r3, r2, r3
 8001000:	69ba      	ldr	r2, [r7, #24]
 8001002:	4313      	orrs	r3, r2
 8001004:	61bb      	str	r3, [r7, #24]
      GPIOx->MODER = temp;
 8001006:	687b      	ldr	r3, [r7, #4]
 8001008:	69ba      	ldr	r2, [r7, #24]
 800100a:	601a      	str	r2, [r3, #0]

      /*--------------------- EXTI Mode Configuration ------------------------*/
      /* Configure the External Interrupt or event for the current IO */
      if((GPIO_Init->Mode & EXTI_MODE) != 0x00U)
 800100c:	683b      	ldr	r3, [r7, #0]
 800100e:	685b      	ldr	r3, [r3, #4]
 8001010:	f403 3340 	and.w	r3, r3, #196608	; 0x30000
 8001014:	2b00      	cmp	r3, #0
 8001016:	f000 80ae 	beq.w	8001176 <HAL_GPIO_Init+0x2e2>
      {
        /* Enable SYSCFG Clock */
        __HAL_RCC_SYSCFG_CLK_ENABLE();
 800101a:	2300      	movs	r3, #0
 800101c:	60fb      	str	r3, [r7, #12]
 800101e:	4b5d      	ldr	r3, [pc, #372]	; (8001194 <HAL_GPIO_Init+0x300>)
 8001020:	6c5b      	ldr	r3, [r3, #68]	; 0x44
 8001022:	4a5c      	ldr	r2, [pc, #368]	; (8001194 <HAL_GPIO_Init+0x300>)
 8001024:	f443 4380 	orr.w	r3, r3, #16384	; 0x4000
 8001028:	6453      	str	r3, [r2, #68]	; 0x44
 800102a:	4b5a      	ldr	r3, [pc, #360]	; (8001194 <HAL_GPIO_Init+0x300>)
 800102c:	6c5b      	ldr	r3, [r3, #68]	; 0x44
 800102e:	f403 4380 	and.w	r3, r3, #16384	; 0x4000
 8001032:	60fb      	str	r3, [r7, #12]
 8001034:	68fb      	ldr	r3, [r7, #12]

        temp = SYSCFG->EXTICR[position >> 2U];
 8001036:	4a58      	ldr	r2, [pc, #352]	; (8001198 <HAL_GPIO_Init+0x304>)
 8001038:	69fb      	ldr	r3, [r7, #28]
 800103a:	089b      	lsrs	r3, r3, #2
 800103c:	3302      	adds	r3, #2
 800103e:	f852 3023 	ldr.w	r3, [r2, r3, lsl #2]
 8001042:	61bb      	str	r3, [r7, #24]
        temp &= ~(0x0FU << (4U * (position & 0x03U)));
 8001044:	69fb      	ldr	r3, [r7, #28]
 8001046:	f003 0303 	and.w	r3, r3, #3
 800104a:	009b      	lsls	r3, r3, #2
 800104c:	220f      	movs	r2, #15
 800104e:	fa02 f303 	lsl.w	r3, r2, r3
 8001052:	43db      	mvns	r3, r3
 8001054:	69ba      	ldr	r2, [r7, #24]
 8001056:	4013      	ands	r3, r2
 8001058:	61bb      	str	r3, [r7, #24]
        temp |= ((uint32_t)(GPIO_GET_INDEX(GPIOx)) << (4U * (position & 0x03U)));
 800105a:	687b      	ldr	r3, [r7, #4]
 800105c:	4a4f      	ldr	r2, [pc, #316]	; (800119c <HAL_GPIO_Init+0x308>)
 800105e:	4293      	cmp	r3, r2
 8001060:	d025      	beq.n	80010ae <HAL_GPIO_Init+0x21a>
 8001062:	687b      	ldr	r3, [r7, #4]
 8001064:	4a4e      	ldr	r2, [pc, #312]	; (80011a0 <HAL_GPIO_Init+0x30c>)
 8001066:	4293      	cmp	r3, r2
 8001068:	d01f      	beq.n	80010aa <HAL_GPIO_Init+0x216>
 800106a:	687b      	ldr	r3, [r7, #4]
 800106c:	4a4d      	ldr	r2, [pc, #308]	; (80011a4 <HAL_GPIO_Init+0x310>)
 800106e:	4293      	cmp	r3, r2
 8001070:	d019      	beq.n	80010a6 <HAL_GPIO_Init+0x212>
 8001072:	687b      	ldr	r3, [r7, #4]
 8001074:	4a4c      	ldr	r2, [pc, #304]	; (80011a8 <HAL_GPIO_Init+0x314>)
 8001076:	4293      	cmp	r3, r2
 8001078:	d013      	beq.n	80010a2 <HAL_GPIO_Init+0x20e>
 800107a:	687b      	ldr	r3, [r7, #4]
 800107c:	4a4b      	ldr	r2, [pc, #300]	; (80011ac <HAL_GPIO_Init+0x318>)
 800107e:	4293      	cmp	r3, r2
 8001080:	d00d      	beq.n	800109e <HAL_GPIO_Init+0x20a>
 8001082:	687b      	ldr	r3, [r7, #4]
 8001084:	4a4a      	ldr	r2, [pc, #296]	; (80011b0 <HAL_GPIO_Init+0x31c>)
 8001086:	4293      	cmp	r3, r2
 8001088:	d007      	beq.n	800109a <HAL_GPIO_Init+0x206>
 800108a:	687b      	ldr	r3, [r7, #4]
 800108c:	4a49      	ldr	r2, [pc, #292]	; (80011b4 <HAL_GPIO_Init+0x320>)
 800108e:	4293      	cmp	r3, r2
 8001090:	d101      	bne.n	8001096 <HAL_GPIO_Init+0x202>
 8001092:	2306      	movs	r3, #6
 8001094:	e00c      	b.n	80010b0 <HAL_GPIO_Init+0x21c>
 8001096:	2307      	movs	r3, #7
 8001098:	e00a      	b.n	80010b0 <HAL_GPIO_Init+0x21c>
 800109a:	2305      	movs	r3, #5
 800109c:	e008      	b.n	80010b0 <HAL_GPIO_Init+0x21c>
 800109e:	2304      	movs	r3, #4
 80010a0:	e006      	b.n	80010b0 <HAL_GPIO_Init+0x21c>
 80010a2:	2303      	movs	r3, #3
 80010a4:	e004      	b.n	80010b0 <HAL_GPIO_Init+0x21c>
 80010a6:	2302      	movs	r3, #2
 80010a8:	e002      	b.n	80010b0 <HAL_GPIO_Init+0x21c>
 80010aa:	2301      	movs	r3, #1
 80010ac:	e000      	b.n	80010b0 <HAL_GPIO_Init+0x21c>
 80010ae:	2300      	movs	r3, #0
 80010b0:	69fa      	ldr	r2, [r7, #28]
 80010b2:	f002 0203 	and.w	r2, r2, #3
 80010b6:	0092      	lsls	r2, r2, #2
 80010b8:	4093      	lsls	r3, r2
 80010ba:	69ba      	ldr	r2, [r7, #24]
 80010bc:	4313      	orrs	r3, r2
 80010be:	61bb      	str	r3, [r7, #24]
        SYSCFG->EXTICR[position >> 2U] = temp;
 80010c0:	4935      	ldr	r1, [pc, #212]	; (8001198 <HAL_GPIO_Init+0x304>)
 80010c2:	69fb      	ldr	r3, [r7, #28]
 80010c4:	089b      	lsrs	r3, r3, #2
 80010c6:	3302      	adds	r3, #2
 80010c8:	69ba      	ldr	r2, [r7, #24]
 80010ca:	f841 2023 	str.w	r2, [r1, r3, lsl #2]

        /* Clear Rising Falling edge configuration */
        temp = EXTI->RTSR;
 80010ce:	4b3a      	ldr	r3, [pc, #232]	; (80011b8 <HAL_GPIO_Init+0x324>)
 80010d0:	689b      	ldr	r3, [r3, #8]
 80010d2:	61bb      	str	r3, [r7, #24]
        temp &= ~((uint32_t)iocurrent);
 80010d4:	693b      	ldr	r3, [r7, #16]
 80010d6:	43db      	mvns	r3, r3
 80010d8:	69ba      	ldr	r2, [r7, #24]
 80010da:	4013      	ands	r3, r2
 80010dc:	61bb      	str	r3, [r7, #24]
        if((GPIO_Init->Mode & TRIGGER_RISING) != 0x00U)
 80010de:	683b      	ldr	r3, [r7, #0]
 80010e0:	685b      	ldr	r3, [r3, #4]
 80010e2:	f403 1380 	and.w	r3, r3, #1048576	; 0x100000
 80010e6:	2b00      	cmp	r3, #0
 80010e8:	d003      	beq.n	80010f2 <HAL_GPIO_Init+0x25e>
        {
          temp |= iocurrent;
 80010ea:	69ba      	ldr	r2, [r7, #24]
 80010ec:	693b      	ldr	r3, [r7, #16]
 80010ee:	4313      	orrs	r3, r2
 80010f0:	61bb      	str	r3, [r7, #24]
        }
        EXTI->RTSR = temp;
 80010f2:	4a31      	ldr	r2, [pc, #196]	; (80011b8 <HAL_GPIO_Init+0x324>)
 80010f4:	69bb      	ldr	r3, [r7, #24]
 80010f6:	6093      	str	r3, [r2, #8]

        temp = EXTI->FTSR;
 80010f8:	4b2f      	ldr	r3, [pc, #188]	; (80011b8 <HAL_GPIO_Init+0x324>)
 80010fa:	68db      	ldr	r3, [r3, #12]
 80010fc:	61bb      	str	r3, [r7, #24]
        temp &= ~((uint32_t)iocurrent);
 80010fe:	693b      	ldr	r3, [r7, #16]
 8001100:	43db      	mvns	r3, r3
 8001102:	69ba      	ldr	r2, [r7, #24]
 8001104:	4013      	ands	r3, r2
 8001106:	61bb      	str	r3, [r7, #24]
        if((GPIO_Init->Mode & TRIGGER_FALLING) != 0x00U)
 8001108:	683b      	ldr	r3, [r7, #0]
 800110a:	685b      	ldr	r3, [r3, #4]
 800110c:	f403 1300 	and.w	r3, r3, #2097152	; 0x200000
 8001110:	2b00      	cmp	r3, #0
 8001112:	d003      	beq.n	800111c <HAL_GPIO_Init+0x288>
        {
          temp |= iocurrent;
 8001114:	69ba      	ldr	r2, [r7, #24]
 8001116:	693b      	ldr	r3, [r7, #16]
 8001118:	4313      	orrs	r3, r2
 800111a:	61bb      	str	r3, [r7, #24]
        }
        EXTI->FTSR = temp;
 800111c:	4a26      	ldr	r2, [pc, #152]	; (80011b8 <HAL_GPIO_Init+0x324>)
 800111e:	69bb      	ldr	r3, [r7, #24]
 8001120:	60d3      	str	r3, [r2, #12]

        temp = EXTI->EMR;
 8001122:	4b25      	ldr	r3, [pc, #148]	; (80011b8 <HAL_GPIO_Init+0x324>)
 8001124:	685b      	ldr	r3, [r3, #4]
 8001126:	61bb      	str	r3, [r7, #24]
        temp &= ~((uint32_t)iocurrent);
 8001128:	693b      	ldr	r3, [r7, #16]
 800112a:	43db      	mvns	r3, r3
 800112c:	69ba      	ldr	r2, [r7, #24]
 800112e:	4013      	ands	r3, r2
 8001130:	61bb      	str	r3, [r7, #24]
        if((GPIO_Init->Mode & EXTI_EVT) != 0x00U)
 8001132:	683b      	ldr	r3, [r7, #0]
 8001134:	685b      	ldr	r3, [r3, #4]
 8001136:	f403 3300 	and.w	r3, r3, #131072	; 0x20000
 800113a:	2b00      	cmp	r3, #0
 800113c:	d003      	beq.n	8001146 <HAL_GPIO_Init+0x2b2>
        {
          temp |= iocurrent;
 800113e:	69ba      	ldr	r2, [r7, #24]
 8001140:	693b      	ldr	r3, [r7, #16]
 8001142:	4313      	orrs	r3, r2
 8001144:	61bb      	str	r3, [r7, #24]
        }
        EXTI->EMR = temp;
 8001146:	4a1c      	ldr	r2, [pc, #112]	; (80011b8 <HAL_GPIO_Init+0x324>)
 8001148:	69bb      	ldr	r3, [r7, #24]
 800114a:	6053      	str	r3, [r2, #4]

        /* Clear EXTI line configuration */
        temp = EXTI->IMR;
 800114c:	4b1a      	ldr	r3, [pc, #104]	; (80011b8 <HAL_GPIO_Init+0x324>)
 800114e:	681b      	ldr	r3, [r3, #0]
 8001150:	61bb      	str	r3, [r7, #24]
        temp &= ~((uint32_t)iocurrent);
 8001152:	693b      	ldr	r3, [r7, #16]
 8001154:	43db      	mvns	r3, r3
 8001156:	69ba      	ldr	r2, [r7, #24]
 8001158:	4013      	ands	r3, r2
 800115a:	61bb      	str	r3, [r7, #24]
        if((GPIO_Init->Mode & EXTI_IT) != 0x00U)
 800115c:	683b      	ldr	r3, [r7, #0]
 800115e:	685b      	ldr	r3, [r3, #4]
 8001160:	f403 3380 	and.w	r3, r3, #65536	; 0x10000
 8001164:	2b00      	cmp	r3, #0
 8001166:	d003      	beq.n	8001170 <HAL_GPIO_Init+0x2dc>
        {
          temp |= iocurrent;
 8001168:	69ba      	ldr	r2, [r7, #24]
 800116a:	693b      	ldr	r3, [r7, #16]
 800116c:	4313      	orrs	r3, r2
 800116e:	61bb      	str	r3, [r7, #24]
        }
        EXTI->IMR = temp;
 8001170:	4a11      	ldr	r2, [pc, #68]	; (80011b8 <HAL_GPIO_Init+0x324>)
 8001172:	69bb      	ldr	r3, [r7, #24]
 8001174:	6013      	str	r3, [r2, #0]
  for(position = 0U; position < GPIO_NUMBER; position++)
 8001176:	69fb      	ldr	r3, [r7, #28]
 8001178:	3301      	adds	r3, #1
 800117a:	61fb      	str	r3, [r7, #28]
 800117c:	69fb      	ldr	r3, [r7, #28]
 800117e:	2b0f      	cmp	r3, #15
 8001180:	f67f ae96 	bls.w	8000eb0 <HAL_GPIO_Init+0x1c>
      }
    }
  }
}
 8001184:	bf00      	nop
 8001186:	bf00      	nop
 8001188:	3724      	adds	r7, #36	; 0x24
 800118a:	46bd      	mov	sp, r7
 800118c:	f85d 7b04 	ldr.w	r7, [sp], #4
 8001190:	4770      	bx	lr
 8001192:	bf00      	nop
 8001194:	40023800 	.word	0x40023800
 8001198:	40013800 	.word	0x40013800
 800119c:	40020000 	.word	0x40020000
 80011a0:	40020400 	.word	0x40020400
 80011a4:	40020800 	.word	0x40020800
 80011a8:	40020c00 	.word	0x40020c00
 80011ac:	40021000 	.word	0x40021000
 80011b0:	40021400 	.word	0x40021400
 80011b4:	40021800 	.word	0x40021800
 80011b8:	40013c00 	.word	0x40013c00

080011bc <HAL_RCC_ClockConfig>:
  *         HPRE[3:0] bits to ensure that HCLK not exceed the maximum allowed frequency
  *         (for more details refer to section above "Initialization/de-initialization functions")
  * @retval None
  */
HAL_StatusTypeDef HAL_RCC_ClockConfig(RCC_ClkInitTypeDef  *RCC_ClkInitStruct, uint32_t FLatency)
{
 80011bc:	b580      	push	{r7, lr}
 80011be:	b084      	sub	sp, #16
 80011c0:	af00      	add	r7, sp, #0
 80011c2:	6078      	str	r0, [r7, #4]
 80011c4:	6039      	str	r1, [r7, #0]
  uint32_t tickstart;

  /* Check Null pointer */
  if(RCC_ClkInitStruct == NULL)
 80011c6:	687b      	ldr	r3, [r7, #4]
 80011c8:	2b00      	cmp	r3, #0
 80011ca:	d101      	bne.n	80011d0 <HAL_RCC_ClockConfig+0x14>
  {
    return HAL_ERROR;
 80011cc:	2301      	movs	r3, #1
 80011ce:	e0cc      	b.n	800136a <HAL_RCC_ClockConfig+0x1ae>
  /* To correctly read data from FLASH memory, the number of wait states (LATENCY)
    must be correctly programmed according to the frequency of the CPU clock
    (HCLK) and the supply voltage of the device. */

  /* Increasing the number of wait states because of higher CPU frequency */
  if(FLatency > __HAL_FLASH_GET_LATENCY())
 80011d0:	4b68      	ldr	r3, [pc, #416]	; (8001374 <HAL_RCC_ClockConfig+0x1b8>)
 80011d2:	681b      	ldr	r3, [r3, #0]
 80011d4:	f003 030f 	and.w	r3, r3, #15
 80011d8:	683a      	ldr	r2, [r7, #0]
 80011da:	429a      	cmp	r2, r3
 80011dc:	d90c      	bls.n	80011f8 <HAL_RCC_ClockConfig+0x3c>
  {
    /* Program the new number of wait states to the LATENCY bits in the FLASH_ACR register */
    __HAL_FLASH_SET_LATENCY(FLatency);
 80011de:	4b65      	ldr	r3, [pc, #404]	; (8001374 <HAL_RCC_ClockConfig+0x1b8>)
 80011e0:	683a      	ldr	r2, [r7, #0]
 80011e2:	b2d2      	uxtb	r2, r2
 80011e4:	701a      	strb	r2, [r3, #0]

    /* Check that the new number of wait states is taken into account to access the Flash
    memory by reading the FLASH_ACR register */
    if(__HAL_FLASH_GET_LATENCY() != FLatency)
 80011e6:	4b63      	ldr	r3, [pc, #396]	; (8001374 <HAL_RCC_ClockConfig+0x1b8>)
 80011e8:	681b      	ldr	r3, [r3, #0]
 80011ea:	f003 030f 	and.w	r3, r3, #15
 80011ee:	683a      	ldr	r2, [r7, #0]
 80011f0:	429a      	cmp	r2, r3
 80011f2:	d001      	beq.n	80011f8 <HAL_RCC_ClockConfig+0x3c>
    {
      return HAL_ERROR;
 80011f4:	2301      	movs	r3, #1
 80011f6:	e0b8      	b.n	800136a <HAL_RCC_ClockConfig+0x1ae>
    }
  }

  /*-------------------------- HCLK Configuration --------------------------*/
  if(((RCC_ClkInitStruct->ClockType) & RCC_CLOCKTYPE_HCLK) == RCC_CLOCKTYPE_HCLK)
 80011f8:	687b      	ldr	r3, [r7, #4]
 80011fa:	681b      	ldr	r3, [r3, #0]
 80011fc:	f003 0302 	and.w	r3, r3, #2
 8001200:	2b00      	cmp	r3, #0
 8001202:	d020      	beq.n	8001246 <HAL_RCC_ClockConfig+0x8a>
  {
    /* Set the highest APBx dividers in order to ensure that we do not go through
       a non-spec phase whatever we decrease or increase HCLK. */
    if(((RCC_ClkInitStruct->ClockType) & RCC_CLOCKTYPE_PCLK1) == RCC_CLOCKTYPE_PCLK1)
 8001204:	687b      	ldr	r3, [r7, #4]
 8001206:	681b      	ldr	r3, [r3, #0]
 8001208:	f003 0304 	and.w	r3, r3, #4
 800120c:	2b00      	cmp	r3, #0
 800120e:	d005      	beq.n	800121c <HAL_RCC_ClockConfig+0x60>
    {
      MODIFY_REG(RCC->CFGR, RCC_CFGR_PPRE1, RCC_HCLK_DIV16);
 8001210:	4b59      	ldr	r3, [pc, #356]	; (8001378 <HAL_RCC_ClockConfig+0x1bc>)
 8001212:	689b      	ldr	r3, [r3, #8]
 8001214:	4a58      	ldr	r2, [pc, #352]	; (8001378 <HAL_RCC_ClockConfig+0x1bc>)
 8001216:	f443 53e0 	orr.w	r3, r3, #7168	; 0x1c00
 800121a:	6093      	str	r3, [r2, #8]
    }

    if(((RCC_ClkInitStruct->ClockType) & RCC_CLOCKTYPE_PCLK2) == RCC_CLOCKTYPE_PCLK2)
 800121c:	687b      	ldr	r3, [r7, #4]
 800121e:	681b      	ldr	r3, [r3, #0]
 8001220:	f003 0308 	and.w	r3, r3, #8
 8001224:	2b00      	cmp	r3, #0
 8001226:	d005      	beq.n	8001234 <HAL_RCC_ClockConfig+0x78>
    {
      MODIFY_REG(RCC->CFGR, RCC_CFGR_PPRE2, (RCC_HCLK_DIV16 << 3));
 8001228:	4b53      	ldr	r3, [pc, #332]	; (8001378 <HAL_RCC_ClockConfig+0x1bc>)
 800122a:	689b      	ldr	r3, [r3, #8]
 800122c:	4a52      	ldr	r2, [pc, #328]	; (8001378 <HAL_RCC_ClockConfig+0x1bc>)
 800122e:	f443 4360 	orr.w	r3, r3, #57344	; 0xe000
 8001232:	6093      	str	r3, [r2, #8]
    }

    assert_param(IS_RCC_HCLK(RCC_ClkInitStruct->AHBCLKDivider));
    MODIFY_REG(RCC->CFGR, RCC_CFGR_HPRE, RCC_ClkInitStruct->AHBCLKDivider);
 8001234:	4b50      	ldr	r3, [pc, #320]	; (8001378 <HAL_RCC_ClockConfig+0x1bc>)
 8001236:	689b      	ldr	r3, [r3, #8]
 8001238:	f023 02f0 	bic.w	r2, r3, #240	; 0xf0
 800123c:	687b      	ldr	r3, [r7, #4]
 800123e:	689b      	ldr	r3, [r3, #8]
 8001240:	494d      	ldr	r1, [pc, #308]	; (8001378 <HAL_RCC_ClockConfig+0x1bc>)
 8001242:	4313      	orrs	r3, r2
 8001244:	608b      	str	r3, [r1, #8]
  }

  /*------------------------- SYSCLK Configuration ---------------------------*/
  if(((RCC_ClkInitStruct->ClockType) & RCC_CLOCKTYPE_SYSCLK) == RCC_CLOCKTYPE_SYSCLK)
 8001246:	687b      	ldr	r3, [r7, #4]
 8001248:	681b      	ldr	r3, [r3, #0]
 800124a:	f003 0301 	and.w	r3, r3, #1
 800124e:	2b00      	cmp	r3, #0
 8001250:	d044      	beq.n	80012dc <HAL_RCC_ClockConfig+0x120>
  {
    assert_param(IS_RCC_SYSCLKSOURCE(RCC_ClkInitStruct->SYSCLKSource));

    /* HSE is selected as System Clock Source */
    if(RCC_ClkInitStruct->SYSCLKSource == RCC_SYSCLKSOURCE_HSE)
 8001252:	687b      	ldr	r3, [r7, #4]
 8001254:	685b      	ldr	r3, [r3, #4]
 8001256:	2b01      	cmp	r3, #1
 8001258:	d107      	bne.n	800126a <HAL_RCC_ClockConfig+0xae>
    {
      /* Check the HSE ready flag */
      if(__HAL_RCC_GET_FLAG(RCC_FLAG_HSERDY) == RESET)
 800125a:	4b47      	ldr	r3, [pc, #284]	; (8001378 <HAL_RCC_ClockConfig+0x1bc>)
 800125c:	681b      	ldr	r3, [r3, #0]
 800125e:	f403 3300 	and.w	r3, r3, #131072	; 0x20000
 8001262:	2b00      	cmp	r3, #0
 8001264:	d119      	bne.n	800129a <HAL_RCC_ClockConfig+0xde>
      {
        return HAL_ERROR;
 8001266:	2301      	movs	r3, #1
 8001268:	e07f      	b.n	800136a <HAL_RCC_ClockConfig+0x1ae>
      }
    }
    /* PLL is selected as System Clock Source */
    else if((RCC_ClkInitStruct->SYSCLKSource == RCC_SYSCLKSOURCE_PLLCLK)   ||
 800126a:	687b      	ldr	r3, [r7, #4]
 800126c:	685b      	ldr	r3, [r3, #4]
 800126e:	2b02      	cmp	r3, #2
 8001270:	d003      	beq.n	800127a <HAL_RCC_ClockConfig+0xbe>
            (RCC_ClkInitStruct->SYSCLKSource == RCC_SYSCLKSOURCE_PLLRCLK))
 8001272:	687b      	ldr	r3, [r7, #4]
 8001274:	685b      	ldr	r3, [r3, #4]
    else if((RCC_ClkInitStruct->SYSCLKSource == RCC_SYSCLKSOURCE_PLLCLK)   ||
 8001276:	2b03      	cmp	r3, #3
 8001278:	d107      	bne.n	800128a <HAL_RCC_ClockConfig+0xce>
    {
      /* Check the PLL ready flag */
      if(__HAL_RCC_GET_FLAG(RCC_FLAG_PLLRDY) == RESET)
 800127a:	4b3f      	ldr	r3, [pc, #252]	; (8001378 <HAL_RCC_ClockConfig+0x1bc>)
 800127c:	681b      	ldr	r3, [r3, #0]
 800127e:	f003 7300 	and.w	r3, r3, #33554432	; 0x2000000
 8001282:	2b00      	cmp	r3, #0
 8001284:	d109      	bne.n	800129a <HAL_RCC_ClockConfig+0xde>
      {
        return HAL_ERROR;
 8001286:	2301      	movs	r3, #1
 8001288:	e06f      	b.n	800136a <HAL_RCC_ClockConfig+0x1ae>
    }
    /* HSI is selected as System Clock Source */
    else
    {
      /* Check the HSI ready flag */
      if(__HAL_RCC_GET_FLAG(RCC_FLAG_HSIRDY) == RESET)
 800128a:	4b3b      	ldr	r3, [pc, #236]	; (8001378 <HAL_RCC_ClockConfig+0x1bc>)
 800128c:	681b      	ldr	r3, [r3, #0]
 800128e:	f003 0302 	and.w	r3, r3, #2
 8001292:	2b00      	cmp	r3, #0
 8001294:	d101      	bne.n	800129a <HAL_RCC_ClockConfig+0xde>
      {
        return HAL_ERROR;
 8001296:	2301      	movs	r3, #1
 8001298:	e067      	b.n	800136a <HAL_RCC_ClockConfig+0x1ae>
      }
    }

    __HAL_RCC_SYSCLK_CONFIG(RCC_ClkInitStruct->SYSCLKSource);
 800129a:	4b37      	ldr	r3, [pc, #220]	; (8001378 <HAL_RCC_ClockConfig+0x1bc>)
 800129c:	689b      	ldr	r3, [r3, #8]
 800129e:	f023 0203 	bic.w	r2, r3, #3
 80012a2:	687b      	ldr	r3, [r7, #4]
 80012a4:	685b      	ldr	r3, [r3, #4]
 80012a6:	4934      	ldr	r1, [pc, #208]	; (8001378 <HAL_RCC_ClockConfig+0x1bc>)
 80012a8:	4313      	orrs	r3, r2
 80012aa:	608b      	str	r3, [r1, #8]

    /* Get Start Tick */
    tickstart = HAL_GetTick();
 80012ac:	f7ff fcaa 	bl	8000c04 <HAL_GetTick>
 80012b0:	60f8      	str	r0, [r7, #12]

    while (__HAL_RCC_GET_SYSCLK_SOURCE() != (RCC_ClkInitStruct->SYSCLKSource << RCC_CFGR_SWS_Pos))
 80012b2:	e00a      	b.n	80012ca <HAL_RCC_ClockConfig+0x10e>
    {
      if ((HAL_GetTick() - tickstart) > CLOCKSWITCH_TIMEOUT_VALUE)
 80012b4:	f7ff fca6 	bl	8000c04 <HAL_GetTick>
 80012b8:	4602      	mov	r2, r0
 80012ba:	68fb      	ldr	r3, [r7, #12]
 80012bc:	1ad3      	subs	r3, r2, r3
 80012be:	f241 3288 	movw	r2, #5000	; 0x1388
 80012c2:	4293      	cmp	r3, r2
 80012c4:	d901      	bls.n	80012ca <HAL_RCC_ClockConfig+0x10e>
      {
        return HAL_TIMEOUT;
 80012c6:	2303      	movs	r3, #3
 80012c8:	e04f      	b.n	800136a <HAL_RCC_ClockConfig+0x1ae>
    while (__HAL_RCC_GET_SYSCLK_SOURCE() != (RCC_ClkInitStruct->SYSCLKSource << RCC_CFGR_SWS_Pos))
 80012ca:	4b2b      	ldr	r3, [pc, #172]	; (8001378 <HAL_RCC_ClockConfig+0x1bc>)
 80012cc:	689b      	ldr	r3, [r3, #8]
 80012ce:	f003 020c 	and.w	r2, r3, #12
 80012d2:	687b      	ldr	r3, [r7, #4]
 80012d4:	685b      	ldr	r3, [r3, #4]
 80012d6:	009b      	lsls	r3, r3, #2
 80012d8:	429a      	cmp	r2, r3
 80012da:	d1eb      	bne.n	80012b4 <HAL_RCC_ClockConfig+0xf8>
      }
    }
  }

  /* Decreasing the number of wait states because of lower CPU frequency */
  if(FLatency < __HAL_FLASH_GET_LATENCY())
 80012dc:	4b25      	ldr	r3, [pc, #148]	; (8001374 <HAL_RCC_ClockConfig+0x1b8>)
 80012de:	681b      	ldr	r3, [r3, #0]
 80012e0:	f003 030f 	and.w	r3, r3, #15
 80012e4:	683a      	ldr	r2, [r7, #0]
 80012e6:	429a      	cmp	r2, r3
 80012e8:	d20c      	bcs.n	8001304 <HAL_RCC_ClockConfig+0x148>
  {
     /* Program the new number of wait states to the LATENCY bits in the FLASH_ACR register */
    __HAL_FLASH_SET_LATENCY(FLatency);
 80012ea:	4b22      	ldr	r3, [pc, #136]	; (8001374 <HAL_RCC_ClockConfig+0x1b8>)
 80012ec:	683a      	ldr	r2, [r7, #0]
 80012ee:	b2d2      	uxtb	r2, r2
 80012f0:	701a      	strb	r2, [r3, #0]

    /* Check that the new number of wait states is taken into account to access the Flash
    memory by reading the FLASH_ACR register */
    if(__HAL_FLASH_GET_LATENCY() != FLatency)
 80012f2:	4b20      	ldr	r3, [pc, #128]	; (8001374 <HAL_RCC_ClockConfig+0x1b8>)
 80012f4:	681b      	ldr	r3, [r3, #0]
 80012f6:	f003 030f 	and.w	r3, r3, #15
 80012fa:	683a      	ldr	r2, [r7, #0]
 80012fc:	429a      	cmp	r2, r3
 80012fe:	d001      	beq.n	8001304 <HAL_RCC_ClockConfig+0x148>
    {
      return HAL_ERROR;
 8001300:	2301      	movs	r3, #1
 8001302:	e032      	b.n	800136a <HAL_RCC_ClockConfig+0x1ae>
    }
  }

  /*-------------------------- PCLK1 Configuration ---------------------------*/
  if(((RCC_ClkInitStruct->ClockType) & RCC_CLOCKTYPE_PCLK1) == RCC_CLOCKTYPE_PCLK1)
 8001304:	687b      	ldr	r3, [r7, #4]
 8001306:	681b      	ldr	r3, [r3, #0]
 8001308:	f003 0304 	and.w	r3, r3, #4
 800130c:	2b00      	cmp	r3, #0
 800130e:	d008      	beq.n	8001322 <HAL_RCC_ClockConfig+0x166>
  {
    assert_param(IS_RCC_PCLK(RCC_ClkInitStruct->APB1CLKDivider));
    MODIFY_REG(RCC->CFGR, RCC_CFGR_PPRE1, RCC_ClkInitStruct->APB1CLKDivider);
 8001310:	4b19      	ldr	r3, [pc, #100]	; (8001378 <HAL_RCC_ClockConfig+0x1bc>)
 8001312:	689b      	ldr	r3, [r3, #8]
 8001314:	f423 52e0 	bic.w	r2, r3, #7168	; 0x1c00
 8001318:	687b      	ldr	r3, [r7, #4]
 800131a:	68db      	ldr	r3, [r3, #12]
 800131c:	4916      	ldr	r1, [pc, #88]	; (8001378 <HAL_RCC_ClockConfig+0x1bc>)
 800131e:	4313      	orrs	r3, r2
 8001320:	608b      	str	r3, [r1, #8]
  }

  /*-------------------------- PCLK2 Configuration ---------------------------*/
  if(((RCC_ClkInitStruct->ClockType) & RCC_CLOCKTYPE_PCLK2) == RCC_CLOCKTYPE_PCLK2)
 8001322:	687b      	ldr	r3, [r7, #4]
 8001324:	681b      	ldr	r3, [r3, #0]
 8001326:	f003 0308 	and.w	r3, r3, #8
 800132a:	2b00      	cmp	r3, #0
 800132c:	d009      	beq.n	8001342 <HAL_RCC_ClockConfig+0x186>
  {
    assert_param(IS_RCC_PCLK(RCC_ClkInitStruct->APB2CLKDivider));
    MODIFY_REG(RCC->CFGR, RCC_CFGR_PPRE2, ((RCC_ClkInitStruct->APB2CLKDivider) << 3U));
 800132e:	4b12      	ldr	r3, [pc, #72]	; (8001378 <HAL_RCC_ClockConfig+0x1bc>)
 8001330:	689b      	ldr	r3, [r3, #8]
 8001332:	f423 4260 	bic.w	r2, r3, #57344	; 0xe000
 8001336:	687b      	ldr	r3, [r7, #4]
 8001338:	691b      	ldr	r3, [r3, #16]
 800133a:	00db      	lsls	r3, r3, #3
 800133c:	490e      	ldr	r1, [pc, #56]	; (8001378 <HAL_RCC_ClockConfig+0x1bc>)
 800133e:	4313      	orrs	r3, r2
 8001340:	608b      	str	r3, [r1, #8]
  }

  /* Update the SystemCoreClock global variable */
  SystemCoreClock = HAL_RCC_GetSysClockFreq() >> AHBPrescTable[(RCC->CFGR & RCC_CFGR_HPRE)>> RCC_CFGR_HPRE_Pos];
 8001342:	f000 f855 	bl	80013f0 <HAL_RCC_GetSysClockFreq>
 8001346:	4602      	mov	r2, r0
 8001348:	4b0b      	ldr	r3, [pc, #44]	; (8001378 <HAL_RCC_ClockConfig+0x1bc>)
 800134a:	689b      	ldr	r3, [r3, #8]
 800134c:	091b      	lsrs	r3, r3, #4
 800134e:	f003 030f 	and.w	r3, r3, #15
 8001352:	490a      	ldr	r1, [pc, #40]	; (800137c <HAL_RCC_ClockConfig+0x1c0>)
 8001354:	5ccb      	ldrb	r3, [r1, r3]
 8001356:	fa22 f303 	lsr.w	r3, r2, r3
 800135a:	4a09      	ldr	r2, [pc, #36]	; (8001380 <HAL_RCC_ClockConfig+0x1c4>)
 800135c:	6013      	str	r3, [r2, #0]

  /* Configure the source of time base considering new system clocks settings */
  HAL_InitTick (uwTickPrio);
 800135e:	4b09      	ldr	r3, [pc, #36]	; (8001384 <HAL_RCC_ClockConfig+0x1c8>)
 8001360:	681b      	ldr	r3, [r3, #0]
 8001362:	4618      	mov	r0, r3
 8001364:	f7ff fc0a 	bl	8000b7c <HAL_InitTick>

  return HAL_OK;
 8001368:	2300      	movs	r3, #0
}
 800136a:	4618      	mov	r0, r3
 800136c:	3710      	adds	r7, #16
 800136e:	46bd      	mov	sp, r7
 8001370:	bd80      	pop	{r7, pc}
 8001372:	bf00      	nop
 8001374:	40023c00 	.word	0x40023c00
 8001378:	40023800 	.word	0x40023800
 800137c:	08002f2c 	.word	0x08002f2c
 8001380:	20000010 	.word	0x20000010
 8001384:	20000014 	.word	0x20000014

08001388 <HAL_RCC_GetHCLKFreq>:
  * @note   The SystemCoreClock CMSIS variable is used to store System Clock Frequency
  *         and updated within this function
  * @retval HCLK frequency
  */
uint32_t HAL_RCC_GetHCLKFreq(void)
{
 8001388:	b480      	push	{r7}
 800138a:	af00      	add	r7, sp, #0
  return SystemCoreClock;
 800138c:	4b03      	ldr	r3, [pc, #12]	; (800139c <HAL_RCC_GetHCLKFreq+0x14>)
 800138e:	681b      	ldr	r3, [r3, #0]
}
 8001390:	4618      	mov	r0, r3
 8001392:	46bd      	mov	sp, r7
 8001394:	f85d 7b04 	ldr.w	r7, [sp], #4
 8001398:	4770      	bx	lr
 800139a:	bf00      	nop
 800139c:	20000010 	.word	0x20000010

080013a0 <HAL_RCC_GetPCLK1Freq>:
  * @note   Each time PCLK1 changes, this function must be called to update the
  *         right PCLK1 value. Otherwise, any configuration based on this function will be incorrect.
  * @retval PCLK1 frequency
  */
uint32_t HAL_RCC_GetPCLK1Freq(void)
{
 80013a0:	b580      	push	{r7, lr}
 80013a2:	af00      	add	r7, sp, #0
  /* Get HCLK source and Compute PCLK1 frequency ---------------------------*/
  return (HAL_RCC_GetHCLKFreq() >> APBPrescTable[(RCC->CFGR & RCC_CFGR_PPRE1)>> RCC_CFGR_PPRE1_Pos]);
 80013a4:	f7ff fff0 	bl	8001388 <HAL_RCC_GetHCLKFreq>
 80013a8:	4602      	mov	r2, r0
 80013aa:	4b05      	ldr	r3, [pc, #20]	; (80013c0 <HAL_RCC_GetPCLK1Freq+0x20>)
 80013ac:	689b      	ldr	r3, [r3, #8]
 80013ae:	0a9b      	lsrs	r3, r3, #10
 80013b0:	f003 0307 	and.w	r3, r3, #7
 80013b4:	4903      	ldr	r1, [pc, #12]	; (80013c4 <HAL_RCC_GetPCLK1Freq+0x24>)
 80013b6:	5ccb      	ldrb	r3, [r1, r3]
 80013b8:	fa22 f303 	lsr.w	r3, r2, r3
}
 80013bc:	4618      	mov	r0, r3
 80013be:	bd80      	pop	{r7, pc}
 80013c0:	40023800 	.word	0x40023800
 80013c4:	08002f3c 	.word	0x08002f3c

080013c8 <HAL_RCC_GetPCLK2Freq>:
  * @note   Each time PCLK2 changes, this function must be called to update the
  *         right PCLK2 value. Otherwise, any configuration based on this function will be incorrect.
  * @retval PCLK2 frequency
  */
uint32_t HAL_RCC_GetPCLK2Freq(void)
{
 80013c8:	b580      	push	{r7, lr}
 80013ca:	af00      	add	r7, sp, #0
  /* Get HCLK source and Compute PCLK2 frequency ---------------------------*/
  return (HAL_RCC_GetHCLKFreq()>> APBPrescTable[(RCC->CFGR & RCC_CFGR_PPRE2)>> RCC_CFGR_PPRE2_Pos]);
 80013cc:	f7ff ffdc 	bl	8001388 <HAL_RCC_GetHCLKFreq>
 80013d0:	4602      	mov	r2, r0
 80013d2:	4b05      	ldr	r3, [pc, #20]	; (80013e8 <HAL_RCC_GetPCLK2Freq+0x20>)
 80013d4:	689b      	ldr	r3, [r3, #8]
 80013d6:	0b5b      	lsrs	r3, r3, #13
 80013d8:	f003 0307 	and.w	r3, r3, #7
 80013dc:	4903      	ldr	r1, [pc, #12]	; (80013ec <HAL_RCC_GetPCLK2Freq+0x24>)
 80013de:	5ccb      	ldrb	r3, [r1, r3]
 80013e0:	fa22 f303 	lsr.w	r3, r2, r3
}
 80013e4:	4618      	mov	r0, r3
 80013e6:	bd80      	pop	{r7, pc}
 80013e8:	40023800 	.word	0x40023800
 80013ec:	08002f3c 	.word	0x08002f3c

080013f0 <HAL_RCC_GetSysClockFreq>:
  *
  *
  * @retval SYSCLK frequency
  */
uint32_t HAL_RCC_GetSysClockFreq(void)
{
 80013f0:	e92d 4fb0 	stmdb	sp!, {r4, r5, r7, r8, r9, sl, fp, lr}
 80013f4:	b0ae      	sub	sp, #184	; 0xb8
 80013f6:	af00      	add	r7, sp, #0
  uint32_t pllm = 0U;
 80013f8:	2300      	movs	r3, #0
 80013fa:	f8c7 30ac 	str.w	r3, [r7, #172]	; 0xac
  uint32_t pllvco = 0U;
 80013fe:	2300      	movs	r3, #0
 8001400:	f8c7 30b4 	str.w	r3, [r7, #180]	; 0xb4
  uint32_t pllp = 0U;
 8001404:	2300      	movs	r3, #0
 8001406:	f8c7 30a8 	str.w	r3, [r7, #168]	; 0xa8
  uint32_t pllr = 0U;
 800140a:	2300      	movs	r3, #0
 800140c:	f8c7 30a4 	str.w	r3, [r7, #164]	; 0xa4
  uint32_t sysclockfreq = 0U;
 8001410:	2300      	movs	r3, #0
 8001412:	f8c7 30b0 	str.w	r3, [r7, #176]	; 0xb0

  /* Get SYSCLK source -------------------------------------------------------*/
  switch (RCC->CFGR & RCC_CFGR_SWS)
 8001416:	4bcb      	ldr	r3, [pc, #812]	; (8001744 <HAL_RCC_GetSysClockFreq+0x354>)
 8001418:	689b      	ldr	r3, [r3, #8]
 800141a:	f003 030c 	and.w	r3, r3, #12
 800141e:	2b0c      	cmp	r3, #12
 8001420:	f200 8206 	bhi.w	8001830 <HAL_RCC_GetSysClockFreq+0x440>
 8001424:	a201      	add	r2, pc, #4	; (adr r2, 800142c <HAL_RCC_GetSysClockFreq+0x3c>)
 8001426:	f852 f023 	ldr.w	pc, [r2, r3, lsl #2]
 800142a:	bf00      	nop
 800142c:	08001461 	.word	0x08001461
 8001430:	08001831 	.word	0x08001831
 8001434:	08001831 	.word	0x08001831
 8001438:	08001831 	.word	0x08001831
 800143c:	08001469 	.word	0x08001469
 8001440:	08001831 	.word	0x08001831
 8001444:	08001831 	.word	0x08001831
 8001448:	08001831 	.word	0x08001831
 800144c:	08001471 	.word	0x08001471
 8001450:	08001831 	.word	0x08001831
 8001454:	08001831 	.word	0x08001831
 8001458:	08001831 	.word	0x08001831
 800145c:	08001661 	.word	0x08001661
  {
    case RCC_CFGR_SWS_HSI:  /* HSI used as system clock source */
    {
      sysclockfreq = HSI_VALUE;
 8001460:	4bb9      	ldr	r3, [pc, #740]	; (8001748 <HAL_RCC_GetSysClockFreq+0x358>)
 8001462:	f8c7 30b0 	str.w	r3, [r7, #176]	; 0xb0
       break;
 8001466:	e1e7      	b.n	8001838 <HAL_RCC_GetSysClockFreq+0x448>
    }
    case RCC_CFGR_SWS_HSE:  /* HSE used as system clock  source */
    {
      sysclockfreq = HSE_VALUE;
 8001468:	4bb8      	ldr	r3, [pc, #736]	; (800174c <HAL_RCC_GetSysClockFreq+0x35c>)
 800146a:	f8c7 30b0 	str.w	r3, [r7, #176]	; 0xb0
      break;
 800146e:	e1e3      	b.n	8001838 <HAL_RCC_GetSysClockFreq+0x448>
    }
    case RCC_CFGR_SWS_PLL:  /* PLL/PLLP used as system clock  source */
    {
      /* PLL_VCO = (HSE_VALUE or HSI_VALUE / PLLM) * PLLN
      SYSCLK = PLL_VCO / PLLP */
      pllm = RCC->PLLCFGR & RCC_PLLCFGR_PLLM;
 8001470:	4bb4      	ldr	r3, [pc, #720]	; (8001744 <HAL_RCC_GetSysClockFreq+0x354>)
 8001472:	685b      	ldr	r3, [r3, #4]
 8001474:	f003 033f 	and.w	r3, r3, #63	; 0x3f
 8001478:	f8c7 30ac 	str.w	r3, [r7, #172]	; 0xac
      if(__HAL_RCC_GET_PLL_OSCSOURCE() != RCC_PLLSOURCE_HSI)
 800147c:	4bb1      	ldr	r3, [pc, #708]	; (8001744 <HAL_RCC_GetSysClockFreq+0x354>)
 800147e:	685b      	ldr	r3, [r3, #4]
 8001480:	f403 0380 	and.w	r3, r3, #4194304	; 0x400000
 8001484:	2b00      	cmp	r3, #0
 8001486:	d071      	beq.n	800156c <HAL_RCC_GetSysClockFreq+0x17c>
      {
        /* HSE used as PLL clock source */
        pllvco = (uint32_t) ((((uint64_t) HSE_VALUE * ((uint64_t) ((RCC->PLLCFGR & RCC_PLLCFGR_PLLN) >> RCC_PLLCFGR_PLLN_Pos)))) / (uint64_t)pllm);
 8001488:	4bae      	ldr	r3, [pc, #696]	; (8001744 <HAL_RCC_GetSysClockFreq+0x354>)
 800148a:	685b      	ldr	r3, [r3, #4]
 800148c:	099b      	lsrs	r3, r3, #6
 800148e:	2200      	movs	r2, #0
 8001490:	f8c7 3098 	str.w	r3, [r7, #152]	; 0x98
 8001494:	f8c7 209c 	str.w	r2, [r7, #156]	; 0x9c
 8001498:	f8d7 3098 	ldr.w	r3, [r7, #152]	; 0x98
 800149c:	f3c3 0308 	ubfx	r3, r3, #0, #9
 80014a0:	f8c7 3090 	str.w	r3, [r7, #144]	; 0x90
 80014a4:	2300      	movs	r3, #0
 80014a6:	f8c7 3094 	str.w	r3, [r7, #148]	; 0x94
 80014aa:	e9d7 4524 	ldrd	r4, r5, [r7, #144]	; 0x90
 80014ae:	4622      	mov	r2, r4
 80014b0:	462b      	mov	r3, r5
 80014b2:	f04f 0000 	mov.w	r0, #0
 80014b6:	f04f 0100 	mov.w	r1, #0
 80014ba:	0159      	lsls	r1, r3, #5
 80014bc:	ea41 61d2 	orr.w	r1, r1, r2, lsr #27
 80014c0:	0150      	lsls	r0, r2, #5
 80014c2:	4602      	mov	r2, r0
 80014c4:	460b      	mov	r3, r1
 80014c6:	4621      	mov	r1, r4
 80014c8:	1a51      	subs	r1, r2, r1
 80014ca:	6439      	str	r1, [r7, #64]	; 0x40
 80014cc:	4629      	mov	r1, r5
 80014ce:	eb63 0301 	sbc.w	r3, r3, r1
 80014d2:	647b      	str	r3, [r7, #68]	; 0x44
 80014d4:	f04f 0200 	mov.w	r2, #0
 80014d8:	f04f 0300 	mov.w	r3, #0
 80014dc:	e9d7 8910 	ldrd	r8, r9, [r7, #64]	; 0x40
 80014e0:	4649      	mov	r1, r9
 80014e2:	018b      	lsls	r3, r1, #6
 80014e4:	4641      	mov	r1, r8
 80014e6:	ea43 6391 	orr.w	r3, r3, r1, lsr #26
 80014ea:	4641      	mov	r1, r8
 80014ec:	018a      	lsls	r2, r1, #6
 80014ee:	4641      	mov	r1, r8
 80014f0:	1a51      	subs	r1, r2, r1
 80014f2:	63b9      	str	r1, [r7, #56]	; 0x38
 80014f4:	4649      	mov	r1, r9
 80014f6:	eb63 0301 	sbc.w	r3, r3, r1
 80014fa:	63fb      	str	r3, [r7, #60]	; 0x3c
 80014fc:	f04f 0200 	mov.w	r2, #0
 8001500:	f04f 0300 	mov.w	r3, #0
 8001504:	e9d7 890e 	ldrd	r8, r9, [r7, #56]	; 0x38
 8001508:	4649      	mov	r1, r9
 800150a:	00cb      	lsls	r3, r1, #3
 800150c:	4641      	mov	r1, r8
 800150e:	ea43 7351 	orr.w	r3, r3, r1, lsr #29
 8001512:	4641      	mov	r1, r8
 8001514:	00ca      	lsls	r2, r1, #3
 8001516:	4610      	mov	r0, r2
 8001518:	4619      	mov	r1, r3
 800151a:	4603      	mov	r3, r0
 800151c:	4622      	mov	r2, r4
 800151e:	189b      	adds	r3, r3, r2
 8001520:	633b      	str	r3, [r7, #48]	; 0x30
 8001522:	462b      	mov	r3, r5
 8001524:	460a      	mov	r2, r1
 8001526:	eb42 0303 	adc.w	r3, r2, r3
 800152a:	637b      	str	r3, [r7, #52]	; 0x34
 800152c:	f04f 0200 	mov.w	r2, #0
 8001530:	f04f 0300 	mov.w	r3, #0
 8001534:	e9d7 450c 	ldrd	r4, r5, [r7, #48]	; 0x30
 8001538:	4629      	mov	r1, r5
 800153a:	024b      	lsls	r3, r1, #9
 800153c:	4621      	mov	r1, r4
 800153e:	ea43 53d1 	orr.w	r3, r3, r1, lsr #23
 8001542:	4621      	mov	r1, r4
 8001544:	024a      	lsls	r2, r1, #9
 8001546:	4610      	mov	r0, r2
 8001548:	4619      	mov	r1, r3
 800154a:	f8d7 30ac 	ldr.w	r3, [r7, #172]	; 0xac
 800154e:	2200      	movs	r2, #0
 8001550:	f8c7 3088 	str.w	r3, [r7, #136]	; 0x88
 8001554:	f8c7 208c 	str.w	r2, [r7, #140]	; 0x8c
 8001558:	e9d7 2322 	ldrd	r2, r3, [r7, #136]	; 0x88
 800155c:	f7fe fe52 	bl	8000204 <__aeabi_uldivmod>
 8001560:	4602      	mov	r2, r0
 8001562:	460b      	mov	r3, r1
 8001564:	4613      	mov	r3, r2
 8001566:	f8c7 30b4 	str.w	r3, [r7, #180]	; 0xb4
 800156a:	e067      	b.n	800163c <HAL_RCC_GetSysClockFreq+0x24c>
      }
      else
      {
        /* HSI used as PLL clock source */
        pllvco = (uint32_t) ((((uint64_t) HSI_VALUE * ((uint64_t) ((RCC->PLLCFGR & RCC_PLLCFGR_PLLN) >> RCC_PLLCFGR_PLLN_Pos)))) / (uint64_t)pllm);
 800156c:	4b75      	ldr	r3, [pc, #468]	; (8001744 <HAL_RCC_GetSysClockFreq+0x354>)
 800156e:	685b      	ldr	r3, [r3, #4]
 8001570:	099b      	lsrs	r3, r3, #6
 8001572:	2200      	movs	r2, #0
 8001574:	f8c7 3080 	str.w	r3, [r7, #128]	; 0x80
 8001578:	f8c7 2084 	str.w	r2, [r7, #132]	; 0x84
 800157c:	f8d7 3080 	ldr.w	r3, [r7, #128]	; 0x80
 8001580:	f3c3 0308 	ubfx	r3, r3, #0, #9
 8001584:	67bb      	str	r3, [r7, #120]	; 0x78
 8001586:	2300      	movs	r3, #0
 8001588:	67fb      	str	r3, [r7, #124]	; 0x7c
 800158a:	e9d7 451e 	ldrd	r4, r5, [r7, #120]	; 0x78
 800158e:	4622      	mov	r2, r4
 8001590:	462b      	mov	r3, r5
 8001592:	f04f 0000 	mov.w	r0, #0
 8001596:	f04f 0100 	mov.w	r1, #0
 800159a:	0159      	lsls	r1, r3, #5
 800159c:	ea41 61d2 	orr.w	r1, r1, r2, lsr #27
 80015a0:	0150      	lsls	r0, r2, #5
 80015a2:	4602      	mov	r2, r0
 80015a4:	460b      	mov	r3, r1
 80015a6:	4621      	mov	r1, r4
 80015a8:	1a51      	subs	r1, r2, r1
 80015aa:	62b9      	str	r1, [r7, #40]	; 0x28
 80015ac:	4629      	mov	r1, r5
 80015ae:	eb63 0301 	sbc.w	r3, r3, r1
 80015b2:	62fb      	str	r3, [r7, #44]	; 0x2c
 80015b4:	f04f 0200 	mov.w	r2, #0
 80015b8:	f04f 0300 	mov.w	r3, #0
 80015bc:	e9d7 890a 	ldrd	r8, r9, [r7, #40]	; 0x28
 80015c0:	4649      	mov	r1, r9
 80015c2:	018b      	lsls	r3, r1, #6
 80015c4:	4641      	mov	r1, r8
 80015c6:	ea43 6391 	orr.w	r3, r3, r1, lsr #26
 80015ca:	4641      	mov	r1, r8
 80015cc:	018a      	lsls	r2, r1, #6
 80015ce:	4641      	mov	r1, r8
 80015d0:	ebb2 0a01 	subs.w	sl, r2, r1
 80015d4:	4649      	mov	r1, r9
 80015d6:	eb63 0b01 	sbc.w	fp, r3, r1
 80015da:	f04f 0200 	mov.w	r2, #0
 80015de:	f04f 0300 	mov.w	r3, #0
 80015e2:	ea4f 03cb 	mov.w	r3, fp, lsl #3
 80015e6:	ea43 735a 	orr.w	r3, r3, sl, lsr #29
 80015ea:	ea4f 02ca 	mov.w	r2, sl, lsl #3
 80015ee:	4692      	mov	sl, r2
 80015f0:	469b      	mov	fp, r3
 80015f2:	4623      	mov	r3, r4
 80015f4:	eb1a 0303 	adds.w	r3, sl, r3
 80015f8:	623b      	str	r3, [r7, #32]
 80015fa:	462b      	mov	r3, r5
 80015fc:	eb4b 0303 	adc.w	r3, fp, r3
 8001600:	627b      	str	r3, [r7, #36]	; 0x24
 8001602:	f04f 0200 	mov.w	r2, #0
 8001606:	f04f 0300 	mov.w	r3, #0
 800160a:	e9d7 4508 	ldrd	r4, r5, [r7, #32]
 800160e:	4629      	mov	r1, r5
 8001610:	028b      	lsls	r3, r1, #10
 8001612:	4621      	mov	r1, r4
 8001614:	ea43 5391 	orr.w	r3, r3, r1, lsr #22
 8001618:	4621      	mov	r1, r4
 800161a:	028a      	lsls	r2, r1, #10
 800161c:	4610      	mov	r0, r2
 800161e:	4619      	mov	r1, r3
 8001620:	f8d7 30ac 	ldr.w	r3, [r7, #172]	; 0xac
 8001624:	2200      	movs	r2, #0
 8001626:	673b      	str	r3, [r7, #112]	; 0x70
 8001628:	677a      	str	r2, [r7, #116]	; 0x74
 800162a:	e9d7 231c 	ldrd	r2, r3, [r7, #112]	; 0x70
 800162e:	f7fe fde9 	bl	8000204 <__aeabi_uldivmod>
 8001632:	4602      	mov	r2, r0
 8001634:	460b      	mov	r3, r1
 8001636:	4613      	mov	r3, r2
 8001638:	f8c7 30b4 	str.w	r3, [r7, #180]	; 0xb4
      }
      pllp = ((((RCC->PLLCFGR & RCC_PLLCFGR_PLLP) >> RCC_PLLCFGR_PLLP_Pos) + 1U) *2U);
 800163c:	4b41      	ldr	r3, [pc, #260]	; (8001744 <HAL_RCC_GetSysClockFreq+0x354>)
 800163e:	685b      	ldr	r3, [r3, #4]
 8001640:	0c1b      	lsrs	r3, r3, #16
 8001642:	f003 0303 	and.w	r3, r3, #3
 8001646:	3301      	adds	r3, #1
 8001648:	005b      	lsls	r3, r3, #1
 800164a:	f8c7 30a8 	str.w	r3, [r7, #168]	; 0xa8

      sysclockfreq = pllvco/pllp;
 800164e:	f8d7 20b4 	ldr.w	r2, [r7, #180]	; 0xb4
 8001652:	f8d7 30a8 	ldr.w	r3, [r7, #168]	; 0xa8
 8001656:	fbb2 f3f3 	udiv	r3, r2, r3
 800165a:	f8c7 30b0 	str.w	r3, [r7, #176]	; 0xb0
      break;
 800165e:	e0eb      	b.n	8001838 <HAL_RCC_GetSysClockFreq+0x448>
    }
    case RCC_CFGR_SWS_PLLR:  /* PLL/PLLR used as system clock  source */
    {
      /* PLL_VCO = (HSE_VALUE or HSI_VALUE / PLLM) * PLLN
      SYSCLK = PLL_VCO / PLLR */
      pllm = RCC->PLLCFGR & RCC_PLLCFGR_PLLM;
 8001660:	4b38      	ldr	r3, [pc, #224]	; (8001744 <HAL_RCC_GetSysClockFreq+0x354>)
 8001662:	685b      	ldr	r3, [r3, #4]
 8001664:	f003 033f 	and.w	r3, r3, #63	; 0x3f
 8001668:	f8c7 30ac 	str.w	r3, [r7, #172]	; 0xac
      if(__HAL_RCC_GET_PLL_OSCSOURCE() != RCC_PLLSOURCE_HSI)
 800166c:	4b35      	ldr	r3, [pc, #212]	; (8001744 <HAL_RCC_GetSysClockFreq+0x354>)
 800166e:	685b      	ldr	r3, [r3, #4]
 8001670:	f403 0380 	and.w	r3, r3, #4194304	; 0x400000
 8001674:	2b00      	cmp	r3, #0
 8001676:	d06b      	beq.n	8001750 <HAL_RCC_GetSysClockFreq+0x360>
      {
        /* HSE used as PLL clock source */
        pllvco = (uint32_t) ((((uint64_t) HSE_VALUE * ((uint64_t) ((RCC->PLLCFGR & RCC_PLLCFGR_PLLN) >> RCC_PLLCFGR_PLLN_Pos)))) / (uint64_t)pllm);
 8001678:	4b32      	ldr	r3, [pc, #200]	; (8001744 <HAL_RCC_GetSysClockFreq+0x354>)
 800167a:	685b      	ldr	r3, [r3, #4]
 800167c:	099b      	lsrs	r3, r3, #6
 800167e:	2200      	movs	r2, #0
 8001680:	66bb      	str	r3, [r7, #104]	; 0x68
 8001682:	66fa      	str	r2, [r7, #108]	; 0x6c
 8001684:	6ebb      	ldr	r3, [r7, #104]	; 0x68
 8001686:	f3c3 0308 	ubfx	r3, r3, #0, #9
 800168a:	663b      	str	r3, [r7, #96]	; 0x60
 800168c:	2300      	movs	r3, #0
 800168e:	667b      	str	r3, [r7, #100]	; 0x64
 8001690:	e9d7 4518 	ldrd	r4, r5, [r7, #96]	; 0x60
 8001694:	4622      	mov	r2, r4
 8001696:	462b      	mov	r3, r5
 8001698:	f04f 0000 	mov.w	r0, #0
 800169c:	f04f 0100 	mov.w	r1, #0
 80016a0:	0159      	lsls	r1, r3, #5
 80016a2:	ea41 61d2 	orr.w	r1, r1, r2, lsr #27
 80016a6:	0150      	lsls	r0, r2, #5
 80016a8:	4602      	mov	r2, r0
 80016aa:	460b      	mov	r3, r1
 80016ac:	4621      	mov	r1, r4
 80016ae:	1a51      	subs	r1, r2, r1
 80016b0:	61b9      	str	r1, [r7, #24]
 80016b2:	4629      	mov	r1, r5
 80016b4:	eb63 0301 	sbc.w	r3, r3, r1
 80016b8:	61fb      	str	r3, [r7, #28]
 80016ba:	f04f 0200 	mov.w	r2, #0
 80016be:	f04f 0300 	mov.w	r3, #0
 80016c2:	e9d7 ab06 	ldrd	sl, fp, [r7, #24]
 80016c6:	4659      	mov	r1, fp
 80016c8:	018b      	lsls	r3, r1, #6
 80016ca:	4651      	mov	r1, sl
 80016cc:	ea43 6391 	orr.w	r3, r3, r1, lsr #26
 80016d0:	4651      	mov	r1, sl
 80016d2:	018a      	lsls	r2, r1, #6
 80016d4:	4651      	mov	r1, sl
 80016d6:	ebb2 0801 	subs.w	r8, r2, r1
 80016da:	4659      	mov	r1, fp
 80016dc:	eb63 0901 	sbc.w	r9, r3, r1
 80016e0:	f04f 0200 	mov.w	r2, #0
 80016e4:	f04f 0300 	mov.w	r3, #0
 80016e8:	ea4f 03c9 	mov.w	r3, r9, lsl #3
 80016ec:	ea43 7358 	orr.w	r3, r3, r8, lsr #29
 80016f0:	ea4f 02c8 	mov.w	r2, r8, lsl #3
 80016f4:	4690      	mov	r8, r2
 80016f6:	4699      	mov	r9, r3
 80016f8:	4623      	mov	r3, r4
 80016fa:	eb18 0303 	adds.w	r3, r8, r3
 80016fe:	613b      	str	r3, [r7, #16]
 8001700:	462b      	mov	r3, r5
 8001702:	eb49 0303 	adc.w	r3, r9, r3
 8001706:	617b      	str	r3, [r7, #20]
 8001708:	f04f 0200 	mov.w	r2, #0
 800170c:	f04f 0300 	mov.w	r3, #0
 8001710:	e9d7 4504 	ldrd	r4, r5, [r7, #16]
 8001714:	4629      	mov	r1, r5
 8001716:	024b      	lsls	r3, r1, #9
 8001718:	4621      	mov	r1, r4
 800171a:	ea43 53d1 	orr.w	r3, r3, r1, lsr #23
 800171e:	4621      	mov	r1, r4
 8001720:	024a      	lsls	r2, r1, #9
 8001722:	4610      	mov	r0, r2
 8001724:	4619      	mov	r1, r3
 8001726:	f8d7 30ac 	ldr.w	r3, [r7, #172]	; 0xac
 800172a:	2200      	movs	r2, #0
 800172c:	65bb      	str	r3, [r7, #88]	; 0x58
 800172e:	65fa      	str	r2, [r7, #92]	; 0x5c
 8001730:	e9d7 2316 	ldrd	r2, r3, [r7, #88]	; 0x58
 8001734:	f7fe fd66 	bl	8000204 <__aeabi_uldivmod>
 8001738:	4602      	mov	r2, r0
 800173a:	460b      	mov	r3, r1
 800173c:	4613      	mov	r3, r2
 800173e:	f8c7 30b4 	str.w	r3, [r7, #180]	; 0xb4
 8001742:	e065      	b.n	8001810 <HAL_RCC_GetSysClockFreq+0x420>
 8001744:	40023800 	.word	0x40023800
 8001748:	00f42400 	.word	0x00f42400
 800174c:	007a1200 	.word	0x007a1200
      }
      else
      {
        /* HSI used as PLL clock source */
        pllvco = (uint32_t) ((((uint64_t) HSI_VALUE * ((uint64_t) ((RCC->PLLCFGR & RCC_PLLCFGR_PLLN) >> RCC_PLLCFGR_PLLN_Pos)))) / (uint64_t)pllm);
 8001750:	4b3d      	ldr	r3, [pc, #244]	; (8001848 <HAL_RCC_GetSysClockFreq+0x458>)
 8001752:	685b      	ldr	r3, [r3, #4]
 8001754:	099b      	lsrs	r3, r3, #6
 8001756:	2200      	movs	r2, #0
 8001758:	4618      	mov	r0, r3
 800175a:	4611      	mov	r1, r2
 800175c:	f3c0 0308 	ubfx	r3, r0, #0, #9
 8001760:	653b      	str	r3, [r7, #80]	; 0x50
 8001762:	2300      	movs	r3, #0
 8001764:	657b      	str	r3, [r7, #84]	; 0x54
 8001766:	e9d7 8914 	ldrd	r8, r9, [r7, #80]	; 0x50
 800176a:	4642      	mov	r2, r8
 800176c:	464b      	mov	r3, r9
 800176e:	f04f 0000 	mov.w	r0, #0
 8001772:	f04f 0100 	mov.w	r1, #0
 8001776:	0159      	lsls	r1, r3, #5
 8001778:	ea41 61d2 	orr.w	r1, r1, r2, lsr #27
 800177c:	0150      	lsls	r0, r2, #5
 800177e:	4602      	mov	r2, r0
 8001780:	460b      	mov	r3, r1
 8001782:	4641      	mov	r1, r8
 8001784:	1a51      	subs	r1, r2, r1
 8001786:	60b9      	str	r1, [r7, #8]
 8001788:	4649      	mov	r1, r9
 800178a:	eb63 0301 	sbc.w	r3, r3, r1
 800178e:	60fb      	str	r3, [r7, #12]
 8001790:	f04f 0200 	mov.w	r2, #0
 8001794:	f04f 0300 	mov.w	r3, #0
 8001798:	e9d7 ab02 	ldrd	sl, fp, [r7, #8]
 800179c:	4659      	mov	r1, fp
 800179e:	018b      	lsls	r3, r1, #6
 80017a0:	4651      	mov	r1, sl
 80017a2:	ea43 6391 	orr.w	r3, r3, r1, lsr #26
 80017a6:	4651      	mov	r1, sl
 80017a8:	018a      	lsls	r2, r1, #6
 80017aa:	4651      	mov	r1, sl
 80017ac:	1a54      	subs	r4, r2, r1
 80017ae:	4659      	mov	r1, fp
 80017b0:	eb63 0501 	sbc.w	r5, r3, r1
 80017b4:	f04f 0200 	mov.w	r2, #0
 80017b8:	f04f 0300 	mov.w	r3, #0
 80017bc:	00eb      	lsls	r3, r5, #3
 80017be:	ea43 7354 	orr.w	r3, r3, r4, lsr #29
 80017c2:	00e2      	lsls	r2, r4, #3
 80017c4:	4614      	mov	r4, r2
 80017c6:	461d      	mov	r5, r3
 80017c8:	4643      	mov	r3, r8
 80017ca:	18e3      	adds	r3, r4, r3
 80017cc:	603b      	str	r3, [r7, #0]
 80017ce:	464b      	mov	r3, r9
 80017d0:	eb45 0303 	adc.w	r3, r5, r3
 80017d4:	607b      	str	r3, [r7, #4]
 80017d6:	f04f 0200 	mov.w	r2, #0
 80017da:	f04f 0300 	mov.w	r3, #0
 80017de:	e9d7 4500 	ldrd	r4, r5, [r7]
 80017e2:	4629      	mov	r1, r5
 80017e4:	028b      	lsls	r3, r1, #10
 80017e6:	4621      	mov	r1, r4
 80017e8:	ea43 5391 	orr.w	r3, r3, r1, lsr #22
 80017ec:	4621      	mov	r1, r4
 80017ee:	028a      	lsls	r2, r1, #10
 80017f0:	4610      	mov	r0, r2
 80017f2:	4619      	mov	r1, r3
 80017f4:	f8d7 30ac 	ldr.w	r3, [r7, #172]	; 0xac
 80017f8:	2200      	movs	r2, #0
 80017fa:	64bb      	str	r3, [r7, #72]	; 0x48
 80017fc:	64fa      	str	r2, [r7, #76]	; 0x4c
 80017fe:	e9d7 2312 	ldrd	r2, r3, [r7, #72]	; 0x48
 8001802:	f7fe fcff 	bl	8000204 <__aeabi_uldivmod>
 8001806:	4602      	mov	r2, r0
 8001808:	460b      	mov	r3, r1
 800180a:	4613      	mov	r3, r2
 800180c:	f8c7 30b4 	str.w	r3, [r7, #180]	; 0xb4
      }
      pllr = ((RCC->PLLCFGR & RCC_PLLCFGR_PLLR) >> RCC_PLLCFGR_PLLR_Pos);
 8001810:	4b0d      	ldr	r3, [pc, #52]	; (8001848 <HAL_RCC_GetSysClockFreq+0x458>)
 8001812:	685b      	ldr	r3, [r3, #4]
 8001814:	0f1b      	lsrs	r3, r3, #28
 8001816:	f003 0307 	and.w	r3, r3, #7
 800181a:	f8c7 30a4 	str.w	r3, [r7, #164]	; 0xa4

      sysclockfreq = pllvco/pllr;
 800181e:	f8d7 20b4 	ldr.w	r2, [r7, #180]	; 0xb4
 8001822:	f8d7 30a4 	ldr.w	r3, [r7, #164]	; 0xa4
 8001826:	fbb2 f3f3 	udiv	r3, r2, r3
 800182a:	f8c7 30b0 	str.w	r3, [r7, #176]	; 0xb0
      break;
 800182e:	e003      	b.n	8001838 <HAL_RCC_GetSysClockFreq+0x448>
    }
    default:
    {
      sysclockfreq = HSI_VALUE;
 8001830:	4b06      	ldr	r3, [pc, #24]	; (800184c <HAL_RCC_GetSysClockFreq+0x45c>)
 8001832:	f8c7 30b0 	str.w	r3, [r7, #176]	; 0xb0
      break;
 8001836:	bf00      	nop
    }
  }
  return sysclockfreq;
 8001838:	f8d7 30b0 	ldr.w	r3, [r7, #176]	; 0xb0
}
 800183c:	4618      	mov	r0, r3
 800183e:	37b8      	adds	r7, #184	; 0xb8
 8001840:	46bd      	mov	sp, r7
 8001842:	e8bd 8fb0 	ldmia.w	sp!, {r4, r5, r7, r8, r9, sl, fp, pc}
 8001846:	bf00      	nop
 8001848:	40023800 	.word	0x40023800
 800184c:	00f42400 	.word	0x00f42400

08001850 <HAL_RCC_OscConfig>:
  * @note   This function add the PLL/PLLR factor management during PLL configuration this feature
  *         is only available in STM32F410xx/STM32F446xx/STM32F469xx/STM32F479xx/STM32F412Zx/STM32F412Vx/STM32F412Rx/STM32F412Cx devices
  * @retval HAL status
  */
HAL_StatusTypeDef HAL_RCC_OscConfig(RCC_OscInitTypeDef  *RCC_OscInitStruct)
{
 8001850:	b580      	push	{r7, lr}
 8001852:	b086      	sub	sp, #24
 8001854:	af00      	add	r7, sp, #0
 8001856:	6078      	str	r0, [r7, #4]
  uint32_t tickstart, pll_config;

  /* Check Null pointer */
  if(RCC_OscInitStruct == NULL)
 8001858:	687b      	ldr	r3, [r7, #4]
 800185a:	2b00      	cmp	r3, #0
 800185c:	d101      	bne.n	8001862 <HAL_RCC_OscConfig+0x12>
  {
    return HAL_ERROR;
 800185e:	2301      	movs	r3, #1
 8001860:	e28d      	b.n	8001d7e <HAL_RCC_OscConfig+0x52e>
  }

  /* Check the parameters */
  assert_param(IS_RCC_OSCILLATORTYPE(RCC_OscInitStruct->OscillatorType));
  /*------------------------------- HSE Configuration ------------------------*/
  if(((RCC_OscInitStruct->OscillatorType) & RCC_OSCILLATORTYPE_HSE) == RCC_OSCILLATORTYPE_HSE)
 8001862:	687b      	ldr	r3, [r7, #4]
 8001864:	681b      	ldr	r3, [r3, #0]
 8001866:	f003 0301 	and.w	r3, r3, #1
 800186a:	2b00      	cmp	r3, #0
 800186c:	f000 8083 	beq.w	8001976 <HAL_RCC_OscConfig+0x126>
  {
    /* Check the parameters */
    assert_param(IS_RCC_HSE(RCC_OscInitStruct->HSEState));
    /* When the HSE is used as system clock or clock source for PLL in these cases HSE will not disabled */
#if defined(STM32F446xx)
    if((__HAL_RCC_GET_SYSCLK_SOURCE() == RCC_CFGR_SWS_HSE)                                                                     ||\
 8001870:	4b94      	ldr	r3, [pc, #592]	; (8001ac4 <HAL_RCC_OscConfig+0x274>)
 8001872:	689b      	ldr	r3, [r3, #8]
 8001874:	f003 030c 	and.w	r3, r3, #12
 8001878:	2b04      	cmp	r3, #4
 800187a:	d019      	beq.n	80018b0 <HAL_RCC_OscConfig+0x60>
      ((__HAL_RCC_GET_SYSCLK_SOURCE() == RCC_CFGR_SWS_PLL) && ((RCC->PLLCFGR & RCC_PLLCFGR_PLLSRC) == RCC_PLLCFGR_PLLSRC_HSE)) ||\
 800187c:	4b91      	ldr	r3, [pc, #580]	; (8001ac4 <HAL_RCC_OscConfig+0x274>)
 800187e:	689b      	ldr	r3, [r3, #8]
 8001880:	f003 030c 	and.w	r3, r3, #12
    if((__HAL_RCC_GET_SYSCLK_SOURCE() == RCC_CFGR_SWS_HSE)                                                                     ||\
 8001884:	2b08      	cmp	r3, #8
 8001886:	d106      	bne.n	8001896 <HAL_RCC_OscConfig+0x46>
      ((__HAL_RCC_GET_SYSCLK_SOURCE() == RCC_CFGR_SWS_PLL) && ((RCC->PLLCFGR & RCC_PLLCFGR_PLLSRC) == RCC_PLLCFGR_PLLSRC_HSE)) ||\
 8001888:	4b8e      	ldr	r3, [pc, #568]	; (8001ac4 <HAL_RCC_OscConfig+0x274>)
 800188a:	685b      	ldr	r3, [r3, #4]
 800188c:	f403 0380 	and.w	r3, r3, #4194304	; 0x400000
 8001890:	f5b3 0f80 	cmp.w	r3, #4194304	; 0x400000
 8001894:	d00c      	beq.n	80018b0 <HAL_RCC_OscConfig+0x60>
      ((__HAL_RCC_GET_SYSCLK_SOURCE() == RCC_CFGR_SWS_PLLR) && ((RCC->PLLCFGR & RCC_PLLCFGR_PLLSRC) == RCC_PLLCFGR_PLLSRC_HSE)))
 8001896:	4b8b      	ldr	r3, [pc, #556]	; (8001ac4 <HAL_RCC_OscConfig+0x274>)
 8001898:	689b      	ldr	r3, [r3, #8]
 800189a:	f003 030c 	and.w	r3, r3, #12
      ((__HAL_RCC_GET_SYSCLK_SOURCE() == RCC_CFGR_SWS_PLL) && ((RCC->PLLCFGR & RCC_PLLCFGR_PLLSRC) == RCC_PLLCFGR_PLLSRC_HSE)) ||\
 800189e:	2b0c      	cmp	r3, #12
 80018a0:	d112      	bne.n	80018c8 <HAL_RCC_OscConfig+0x78>
      ((__HAL_RCC_GET_SYSCLK_SOURCE() == RCC_CFGR_SWS_PLLR) && ((RCC->PLLCFGR & RCC_PLLCFGR_PLLSRC) == RCC_PLLCFGR_PLLSRC_HSE)))
 80018a2:	4b88      	ldr	r3, [pc, #544]	; (8001ac4 <HAL_RCC_OscConfig+0x274>)
 80018a4:	685b      	ldr	r3, [r3, #4]
 80018a6:	f403 0380 	and.w	r3, r3, #4194304	; 0x400000
 80018aa:	f5b3 0f80 	cmp.w	r3, #4194304	; 0x400000
 80018ae:	d10b      	bne.n	80018c8 <HAL_RCC_OscConfig+0x78>
#else
    if((__HAL_RCC_GET_SYSCLK_SOURCE() == RCC_CFGR_SWS_HSE)                                                                     ||\
      ((__HAL_RCC_GET_SYSCLK_SOURCE() == RCC_CFGR_SWS_PLL) && ((RCC->PLLCFGR & RCC_PLLCFGR_PLLSRC) == RCC_PLLCFGR_PLLSRC_HSE)))
#endif /* STM32F446xx */
    {
      if((__HAL_RCC_GET_FLAG(RCC_FLAG_HSERDY) != RESET) && (RCC_OscInitStruct->HSEState == RCC_HSE_OFF))
 80018b0:	4b84      	ldr	r3, [pc, #528]	; (8001ac4 <HAL_RCC_OscConfig+0x274>)
 80018b2:	681b      	ldr	r3, [r3, #0]
 80018b4:	f403 3300 	and.w	r3, r3, #131072	; 0x20000
 80018b8:	2b00      	cmp	r3, #0
 80018ba:	d05b      	beq.n	8001974 <HAL_RCC_OscConfig+0x124>
 80018bc:	687b      	ldr	r3, [r7, #4]
 80018be:	685b      	ldr	r3, [r3, #4]
 80018c0:	2b00      	cmp	r3, #0
 80018c2:	d157      	bne.n	8001974 <HAL_RCC_OscConfig+0x124>
      {
        return HAL_ERROR;
 80018c4:	2301      	movs	r3, #1
 80018c6:	e25a      	b.n	8001d7e <HAL_RCC_OscConfig+0x52e>
      }
    }
    else
    {
      /* Set the new HSE configuration ---------------------------------------*/
      __HAL_RCC_HSE_CONFIG(RCC_OscInitStruct->HSEState);
 80018c8:	687b      	ldr	r3, [r7, #4]
 80018ca:	685b      	ldr	r3, [r3, #4]
 80018cc:	f5b3 3f80 	cmp.w	r3, #65536	; 0x10000
 80018d0:	d106      	bne.n	80018e0 <HAL_RCC_OscConfig+0x90>
 80018d2:	4b7c      	ldr	r3, [pc, #496]	; (8001ac4 <HAL_RCC_OscConfig+0x274>)
 80018d4:	681b      	ldr	r3, [r3, #0]
 80018d6:	4a7b      	ldr	r2, [pc, #492]	; (8001ac4 <HAL_RCC_OscConfig+0x274>)
 80018d8:	f443 3380 	orr.w	r3, r3, #65536	; 0x10000
 80018dc:	6013      	str	r3, [r2, #0]
 80018de:	e01d      	b.n	800191c <HAL_RCC_OscConfig+0xcc>
 80018e0:	687b      	ldr	r3, [r7, #4]
 80018e2:	685b      	ldr	r3, [r3, #4]
 80018e4:	f5b3 2fa0 	cmp.w	r3, #327680	; 0x50000
 80018e8:	d10c      	bne.n	8001904 <HAL_RCC_OscConfig+0xb4>
 80018ea:	4b76      	ldr	r3, [pc, #472]	; (8001ac4 <HAL_RCC_OscConfig+0x274>)
 80018ec:	681b      	ldr	r3, [r3, #0]
 80018ee:	4a75      	ldr	r2, [pc, #468]	; (8001ac4 <HAL_RCC_OscConfig+0x274>)
 80018f0:	f443 2380 	orr.w	r3, r3, #262144	; 0x40000
 80018f4:	6013      	str	r3, [r2, #0]
 80018f6:	4b73      	ldr	r3, [pc, #460]	; (8001ac4 <HAL_RCC_OscConfig+0x274>)
 80018f8:	681b      	ldr	r3, [r3, #0]
 80018fa:	4a72      	ldr	r2, [pc, #456]	; (8001ac4 <HAL_RCC_OscConfig+0x274>)
 80018fc:	f443 3380 	orr.w	r3, r3, #65536	; 0x10000
 8001900:	6013      	str	r3, [r2, #0]
 8001902:	e00b      	b.n	800191c <HAL_RCC_OscConfig+0xcc>
 8001904:	4b6f      	ldr	r3, [pc, #444]	; (8001ac4 <HAL_RCC_OscConfig+0x274>)
 8001906:	681b      	ldr	r3, [r3, #0]
 8001908:	4a6e      	ldr	r2, [pc, #440]	; (8001ac4 <HAL_RCC_OscConfig+0x274>)
 800190a:	f423 3380 	bic.w	r3, r3, #65536	; 0x10000
 800190e:	6013      	str	r3, [r2, #0]
 8001910:	4b6c      	ldr	r3, [pc, #432]	; (8001ac4 <HAL_RCC_OscConfig+0x274>)
 8001912:	681b      	ldr	r3, [r3, #0]
 8001914:	4a6b      	ldr	r2, [pc, #428]	; (8001ac4 <HAL_RCC_OscConfig+0x274>)
 8001916:	f423 2380 	bic.w	r3, r3, #262144	; 0x40000
 800191a:	6013      	str	r3, [r2, #0]

      /* Check the HSE State */
      if((RCC_OscInitStruct->HSEState) != RCC_HSE_OFF)
 800191c:	687b      	ldr	r3, [r7, #4]
 800191e:	685b      	ldr	r3, [r3, #4]
 8001920:	2b00      	cmp	r3, #0
 8001922:	d013      	beq.n	800194c <HAL_RCC_OscConfig+0xfc>
      {
        /* Get Start Tick*/
        tickstart = HAL_GetTick();
 8001924:	f7ff f96e 	bl	8000c04 <HAL_GetTick>
 8001928:	6138      	str	r0, [r7, #16]

        /* Wait till HSE is ready */
        while(__HAL_RCC_GET_FLAG(RCC_FLAG_HSERDY) == RESET)
 800192a:	e008      	b.n	800193e <HAL_RCC_OscConfig+0xee>
        {
          if((HAL_GetTick() - tickstart ) > HSE_TIMEOUT_VALUE)
 800192c:	f7ff f96a 	bl	8000c04 <HAL_GetTick>
 8001930:	4602      	mov	r2, r0
 8001932:	693b      	ldr	r3, [r7, #16]
 8001934:	1ad3      	subs	r3, r2, r3
 8001936:	2b64      	cmp	r3, #100	; 0x64
 8001938:	d901      	bls.n	800193e <HAL_RCC_OscConfig+0xee>
          {
            return HAL_TIMEOUT;
 800193a:	2303      	movs	r3, #3
 800193c:	e21f      	b.n	8001d7e <HAL_RCC_OscConfig+0x52e>
        while(__HAL_RCC_GET_FLAG(RCC_FLAG_HSERDY) == RESET)
 800193e:	4b61      	ldr	r3, [pc, #388]	; (8001ac4 <HAL_RCC_OscConfig+0x274>)
 8001940:	681b      	ldr	r3, [r3, #0]
 8001942:	f403 3300 	and.w	r3, r3, #131072	; 0x20000
 8001946:	2b00      	cmp	r3, #0
 8001948:	d0f0      	beq.n	800192c <HAL_RCC_OscConfig+0xdc>
 800194a:	e014      	b.n	8001976 <HAL_RCC_OscConfig+0x126>
        }
      }
      else
      {
        /* Get Start Tick*/
        tickstart = HAL_GetTick();
 800194c:	f7ff f95a 	bl	8000c04 <HAL_GetTick>
 8001950:	6138      	str	r0, [r7, #16]

        /* Wait till HSE is bypassed or disabled */
        while(__HAL_RCC_GET_FLAG(RCC_FLAG_HSERDY) != RESET)
 8001952:	e008      	b.n	8001966 <HAL_RCC_OscConfig+0x116>
        {
          if((HAL_GetTick() - tickstart ) > HSE_TIMEOUT_VALUE)
 8001954:	f7ff f956 	bl	8000c04 <HAL_GetTick>
 8001958:	4602      	mov	r2, r0
 800195a:	693b      	ldr	r3, [r7, #16]
 800195c:	1ad3      	subs	r3, r2, r3
 800195e:	2b64      	cmp	r3, #100	; 0x64
 8001960:	d901      	bls.n	8001966 <HAL_RCC_OscConfig+0x116>
          {
            return HAL_TIMEOUT;
 8001962:	2303      	movs	r3, #3
 8001964:	e20b      	b.n	8001d7e <HAL_RCC_OscConfig+0x52e>
        while(__HAL_RCC_GET_FLAG(RCC_FLAG_HSERDY) != RESET)
 8001966:	4b57      	ldr	r3, [pc, #348]	; (8001ac4 <HAL_RCC_OscConfig+0x274>)
 8001968:	681b      	ldr	r3, [r3, #0]
 800196a:	f403 3300 	and.w	r3, r3, #131072	; 0x20000
 800196e:	2b00      	cmp	r3, #0
 8001970:	d1f0      	bne.n	8001954 <HAL_RCC_OscConfig+0x104>
 8001972:	e000      	b.n	8001976 <HAL_RCC_OscConfig+0x126>
      if((__HAL_RCC_GET_FLAG(RCC_FLAG_HSERDY) != RESET) && (RCC_OscInitStruct->HSEState == RCC_HSE_OFF))
 8001974:	bf00      	nop
        }
      }
    }
  }
  /*----------------------------- HSI Configuration --------------------------*/
  if(((RCC_OscInitStruct->OscillatorType) & RCC_OSCILLATORTYPE_HSI) == RCC_OSCILLATORTYPE_HSI)
 8001976:	687b      	ldr	r3, [r7, #4]
 8001978:	681b      	ldr	r3, [r3, #0]
 800197a:	f003 0302 	and.w	r3, r3, #2
 800197e:	2b00      	cmp	r3, #0
 8001980:	d06f      	beq.n	8001a62 <HAL_RCC_OscConfig+0x212>
    assert_param(IS_RCC_HSI(RCC_OscInitStruct->HSIState));
    assert_param(IS_RCC_CALIBRATION_VALUE(RCC_OscInitStruct->HSICalibrationValue));

    /* Check if HSI is used as system clock or as PLL source when PLL is selected as system clock */
#if defined(STM32F446xx)
    if((__HAL_RCC_GET_SYSCLK_SOURCE() == RCC_CFGR_SWS_HSI)                                                                     ||\
 8001982:	4b50      	ldr	r3, [pc, #320]	; (8001ac4 <HAL_RCC_OscConfig+0x274>)
 8001984:	689b      	ldr	r3, [r3, #8]
 8001986:	f003 030c 	and.w	r3, r3, #12
 800198a:	2b00      	cmp	r3, #0
 800198c:	d017      	beq.n	80019be <HAL_RCC_OscConfig+0x16e>
      ((__HAL_RCC_GET_SYSCLK_SOURCE() == RCC_CFGR_SWS_PLL) && ((RCC->PLLCFGR & RCC_PLLCFGR_PLLSRC) == RCC_PLLCFGR_PLLSRC_HSI)) ||\
 800198e:	4b4d      	ldr	r3, [pc, #308]	; (8001ac4 <HAL_RCC_OscConfig+0x274>)
 8001990:	689b      	ldr	r3, [r3, #8]
 8001992:	f003 030c 	and.w	r3, r3, #12
    if((__HAL_RCC_GET_SYSCLK_SOURCE() == RCC_CFGR_SWS_HSI)                                                                     ||\
 8001996:	2b08      	cmp	r3, #8
 8001998:	d105      	bne.n	80019a6 <HAL_RCC_OscConfig+0x156>
      ((__HAL_RCC_GET_SYSCLK_SOURCE() == RCC_CFGR_SWS_PLL) && ((RCC->PLLCFGR & RCC_PLLCFGR_PLLSRC) == RCC_PLLCFGR_PLLSRC_HSI)) ||\
 800199a:	4b4a      	ldr	r3, [pc, #296]	; (8001ac4 <HAL_RCC_OscConfig+0x274>)
 800199c:	685b      	ldr	r3, [r3, #4]
 800199e:	f403 0380 	and.w	r3, r3, #4194304	; 0x400000
 80019a2:	2b00      	cmp	r3, #0
 80019a4:	d00b      	beq.n	80019be <HAL_RCC_OscConfig+0x16e>
      ((__HAL_RCC_GET_SYSCLK_SOURCE() == RCC_CFGR_SWS_PLLR) && ((RCC->PLLCFGR & RCC_PLLCFGR_PLLSRC) == RCC_PLLCFGR_PLLSRC_HSI)))
 80019a6:	4b47      	ldr	r3, [pc, #284]	; (8001ac4 <HAL_RCC_OscConfig+0x274>)
 80019a8:	689b      	ldr	r3, [r3, #8]
 80019aa:	f003 030c 	and.w	r3, r3, #12
      ((__HAL_RCC_GET_SYSCLK_SOURCE() == RCC_CFGR_SWS_PLL) && ((RCC->PLLCFGR & RCC_PLLCFGR_PLLSRC) == RCC_PLLCFGR_PLLSRC_HSI)) ||\
 80019ae:	2b0c      	cmp	r3, #12
 80019b0:	d11c      	bne.n	80019ec <HAL_RCC_OscConfig+0x19c>
      ((__HAL_RCC_GET_SYSCLK_SOURCE() == RCC_CFGR_SWS_PLLR) && ((RCC->PLLCFGR & RCC_PLLCFGR_PLLSRC) == RCC_PLLCFGR_PLLSRC_HSI)))
 80019b2:	4b44      	ldr	r3, [pc, #272]	; (8001ac4 <HAL_RCC_OscConfig+0x274>)
 80019b4:	685b      	ldr	r3, [r3, #4]
 80019b6:	f403 0380 	and.w	r3, r3, #4194304	; 0x400000
 80019ba:	2b00      	cmp	r3, #0
 80019bc:	d116      	bne.n	80019ec <HAL_RCC_OscConfig+0x19c>
    if((__HAL_RCC_GET_SYSCLK_SOURCE() == RCC_CFGR_SWS_HSI)                                                                     ||\
      ((__HAL_RCC_GET_SYSCLK_SOURCE() == RCC_CFGR_SWS_PLL) && ((RCC->PLLCFGR & RCC_PLLCFGR_PLLSRC) == RCC_PLLCFGR_PLLSRC_HSI)))
#endif /* STM32F446xx */
    {
      /* When HSI is used as system clock it will not disabled */
      if((__HAL_RCC_GET_FLAG(RCC_FLAG_HSIRDY) != RESET) && (RCC_OscInitStruct->HSIState != RCC_HSI_ON))
 80019be:	4b41      	ldr	r3, [pc, #260]	; (8001ac4 <HAL_RCC_OscConfig+0x274>)
 80019c0:	681b      	ldr	r3, [r3, #0]
 80019c2:	f003 0302 	and.w	r3, r3, #2
 80019c6:	2b00      	cmp	r3, #0
 80019c8:	d005      	beq.n	80019d6 <HAL_RCC_OscConfig+0x186>
 80019ca:	687b      	ldr	r3, [r7, #4]
 80019cc:	68db      	ldr	r3, [r3, #12]
 80019ce:	2b01      	cmp	r3, #1
 80019d0:	d001      	beq.n	80019d6 <HAL_RCC_OscConfig+0x186>
      {
        return HAL_ERROR;
 80019d2:	2301      	movs	r3, #1
 80019d4:	e1d3      	b.n	8001d7e <HAL_RCC_OscConfig+0x52e>
      }
      /* Otherwise, just the calibration is allowed */
      else
      {
        /* Adjusts the Internal High Speed oscillator (HSI) calibration value.*/
        __HAL_RCC_HSI_CALIBRATIONVALUE_ADJUST(RCC_OscInitStruct->HSICalibrationValue);
 80019d6:	4b3b      	ldr	r3, [pc, #236]	; (8001ac4 <HAL_RCC_OscConfig+0x274>)
 80019d8:	681b      	ldr	r3, [r3, #0]
 80019da:	f023 02f8 	bic.w	r2, r3, #248	; 0xf8
 80019de:	687b      	ldr	r3, [r7, #4]
 80019e0:	691b      	ldr	r3, [r3, #16]
 80019e2:	00db      	lsls	r3, r3, #3
 80019e4:	4937      	ldr	r1, [pc, #220]	; (8001ac4 <HAL_RCC_OscConfig+0x274>)
 80019e6:	4313      	orrs	r3, r2
 80019e8:	600b      	str	r3, [r1, #0]
      if((__HAL_RCC_GET_FLAG(RCC_FLAG_HSIRDY) != RESET) && (RCC_OscInitStruct->HSIState != RCC_HSI_ON))
 80019ea:	e03a      	b.n	8001a62 <HAL_RCC_OscConfig+0x212>
      }
    }
    else
    {
      /* Check the HSI State */
      if((RCC_OscInitStruct->HSIState)!= RCC_HSI_OFF)
 80019ec:	687b      	ldr	r3, [r7, #4]
 80019ee:	68db      	ldr	r3, [r3, #12]
 80019f0:	2b00      	cmp	r3, #0
 80019f2:	d020      	beq.n	8001a36 <HAL_RCC_OscConfig+0x1e6>
      {
        /* Enable the Internal High Speed oscillator (HSI). */
        __HAL_RCC_HSI_ENABLE();
 80019f4:	4b34      	ldr	r3, [pc, #208]	; (8001ac8 <HAL_RCC_OscConfig+0x278>)
 80019f6:	2201      	movs	r2, #1
 80019f8:	601a      	str	r2, [r3, #0]

        /* Get Start Tick*/
        tickstart = HAL_GetTick();
 80019fa:	f7ff f903 	bl	8000c04 <HAL_GetTick>
 80019fe:	6138      	str	r0, [r7, #16]

        /* Wait till HSI is ready */
        while(__HAL_RCC_GET_FLAG(RCC_FLAG_HSIRDY) == RESET)
 8001a00:	e008      	b.n	8001a14 <HAL_RCC_OscConfig+0x1c4>
        {
          if((HAL_GetTick() - tickstart ) > HSI_TIMEOUT_VALUE)
 8001a02:	f7ff f8ff 	bl	8000c04 <HAL_GetTick>
 8001a06:	4602      	mov	r2, r0
 8001a08:	693b      	ldr	r3, [r7, #16]
 8001a0a:	1ad3      	subs	r3, r2, r3
 8001a0c:	2b02      	cmp	r3, #2
 8001a0e:	d901      	bls.n	8001a14 <HAL_RCC_OscConfig+0x1c4>
          {
            return HAL_TIMEOUT;
 8001a10:	2303      	movs	r3, #3
 8001a12:	e1b4      	b.n	8001d7e <HAL_RCC_OscConfig+0x52e>
        while(__HAL_RCC_GET_FLAG(RCC_FLAG_HSIRDY) == RESET)
 8001a14:	4b2b      	ldr	r3, [pc, #172]	; (8001ac4 <HAL_RCC_OscConfig+0x274>)
 8001a16:	681b      	ldr	r3, [r3, #0]
 8001a18:	f003 0302 	and.w	r3, r3, #2
 8001a1c:	2b00      	cmp	r3, #0
 8001a1e:	d0f0      	beq.n	8001a02 <HAL_RCC_OscConfig+0x1b2>
          }
        }

        /* Adjusts the Internal High Speed oscillator (HSI) calibration value.*/
        __HAL_RCC_HSI_CALIBRATIONVALUE_ADJUST(RCC_OscInitStruct->HSICalibrationValue);
 8001a20:	4b28      	ldr	r3, [pc, #160]	; (8001ac4 <HAL_RCC_OscConfig+0x274>)
 8001a22:	681b      	ldr	r3, [r3, #0]
 8001a24:	f023 02f8 	bic.w	r2, r3, #248	; 0xf8
 8001a28:	687b      	ldr	r3, [r7, #4]
 8001a2a:	691b      	ldr	r3, [r3, #16]
 8001a2c:	00db      	lsls	r3, r3, #3
 8001a2e:	4925      	ldr	r1, [pc, #148]	; (8001ac4 <HAL_RCC_OscConfig+0x274>)
 8001a30:	4313      	orrs	r3, r2
 8001a32:	600b      	str	r3, [r1, #0]
 8001a34:	e015      	b.n	8001a62 <HAL_RCC_OscConfig+0x212>
      }
      else
      {
        /* Disable the Internal High Speed oscillator (HSI). */
        __HAL_RCC_HSI_DISABLE();
 8001a36:	4b24      	ldr	r3, [pc, #144]	; (8001ac8 <HAL_RCC_OscConfig+0x278>)
 8001a38:	2200      	movs	r2, #0
 8001a3a:	601a      	str	r2, [r3, #0]

        /* Get Start Tick*/
        tickstart = HAL_GetTick();
 8001a3c:	f7ff f8e2 	bl	8000c04 <HAL_GetTick>
 8001a40:	6138      	str	r0, [r7, #16]

        /* Wait till HSI is ready */
        while(__HAL_RCC_GET_FLAG(RCC_FLAG_HSIRDY) != RESET)
 8001a42:	e008      	b.n	8001a56 <HAL_RCC_OscConfig+0x206>
        {
          if((HAL_GetTick() - tickstart ) > HSI_TIMEOUT_VALUE)
 8001a44:	f7ff f8de 	bl	8000c04 <HAL_GetTick>
 8001a48:	4602      	mov	r2, r0
 8001a4a:	693b      	ldr	r3, [r7, #16]
 8001a4c:	1ad3      	subs	r3, r2, r3
 8001a4e:	2b02      	cmp	r3, #2
 8001a50:	d901      	bls.n	8001a56 <HAL_RCC_OscConfig+0x206>
          {
            return HAL_TIMEOUT;
 8001a52:	2303      	movs	r3, #3
 8001a54:	e193      	b.n	8001d7e <HAL_RCC_OscConfig+0x52e>
        while(__HAL_RCC_GET_FLAG(RCC_FLAG_HSIRDY) != RESET)
 8001a56:	4b1b      	ldr	r3, [pc, #108]	; (8001ac4 <HAL_RCC_OscConfig+0x274>)
 8001a58:	681b      	ldr	r3, [r3, #0]
 8001a5a:	f003 0302 	and.w	r3, r3, #2
 8001a5e:	2b00      	cmp	r3, #0
 8001a60:	d1f0      	bne.n	8001a44 <HAL_RCC_OscConfig+0x1f4>
        }
      }
    }
  }
  /*------------------------------ LSI Configuration -------------------------*/
  if(((RCC_OscInitStruct->OscillatorType) & RCC_OSCILLATORTYPE_LSI) == RCC_OSCILLATORTYPE_LSI)
 8001a62:	687b      	ldr	r3, [r7, #4]
 8001a64:	681b      	ldr	r3, [r3, #0]
 8001a66:	f003 0308 	and.w	r3, r3, #8
 8001a6a:	2b00      	cmp	r3, #0
 8001a6c:	d036      	beq.n	8001adc <HAL_RCC_OscConfig+0x28c>
  {
    /* Check the parameters */
    assert_param(IS_RCC_LSI(RCC_OscInitStruct->LSIState));

    /* Check the LSI State */
    if((RCC_OscInitStruct->LSIState)!= RCC_LSI_OFF)
 8001a6e:	687b      	ldr	r3, [r7, #4]
 8001a70:	695b      	ldr	r3, [r3, #20]
 8001a72:	2b00      	cmp	r3, #0
 8001a74:	d016      	beq.n	8001aa4 <HAL_RCC_OscConfig+0x254>
    {
      /* Enable the Internal Low Speed oscillator (LSI). */
      __HAL_RCC_LSI_ENABLE();
 8001a76:	4b15      	ldr	r3, [pc, #84]	; (8001acc <HAL_RCC_OscConfig+0x27c>)
 8001a78:	2201      	movs	r2, #1
 8001a7a:	601a      	str	r2, [r3, #0]

      /* Get Start Tick*/
      tickstart = HAL_GetTick();
 8001a7c:	f7ff f8c2 	bl	8000c04 <HAL_GetTick>
 8001a80:	6138      	str	r0, [r7, #16]

      /* Wait till LSI is ready */
      while(__HAL_RCC_GET_FLAG(RCC_FLAG_LSIRDY) == RESET)
 8001a82:	e008      	b.n	8001a96 <HAL_RCC_OscConfig+0x246>
      {
        if((HAL_GetTick() - tickstart ) > LSI_TIMEOUT_VALUE)
 8001a84:	f7ff f8be 	bl	8000c04 <HAL_GetTick>
 8001a88:	4602      	mov	r2, r0
 8001a8a:	693b      	ldr	r3, [r7, #16]
 8001a8c:	1ad3      	subs	r3, r2, r3
 8001a8e:	2b02      	cmp	r3, #2
 8001a90:	d901      	bls.n	8001a96 <HAL_RCC_OscConfig+0x246>
        {
          return HAL_TIMEOUT;
 8001a92:	2303      	movs	r3, #3
 8001a94:	e173      	b.n	8001d7e <HAL_RCC_OscConfig+0x52e>
      while(__HAL_RCC_GET_FLAG(RCC_FLAG_LSIRDY) == RESET)
 8001a96:	4b0b      	ldr	r3, [pc, #44]	; (8001ac4 <HAL_RCC_OscConfig+0x274>)
 8001a98:	6f5b      	ldr	r3, [r3, #116]	; 0x74
 8001a9a:	f003 0302 	and.w	r3, r3, #2
 8001a9e:	2b00      	cmp	r3, #0
 8001aa0:	d0f0      	beq.n	8001a84 <HAL_RCC_OscConfig+0x234>
 8001aa2:	e01b      	b.n	8001adc <HAL_RCC_OscConfig+0x28c>
      }
    }
    else
    {
      /* Disable the Internal Low Speed oscillator (LSI). */
      __HAL_RCC_LSI_DISABLE();
 8001aa4:	4b09      	ldr	r3, [pc, #36]	; (8001acc <HAL_RCC_OscConfig+0x27c>)
 8001aa6:	2200      	movs	r2, #0
 8001aa8:	601a      	str	r2, [r3, #0]

      /* Get Start Tick*/
      tickstart = HAL_GetTick();
 8001aaa:	f7ff f8ab 	bl	8000c04 <HAL_GetTick>
 8001aae:	6138      	str	r0, [r7, #16]

      /* Wait till LSI is ready */
      while(__HAL_RCC_GET_FLAG(RCC_FLAG_LSIRDY) != RESET)
 8001ab0:	e00e      	b.n	8001ad0 <HAL_RCC_OscConfig+0x280>
      {
        if((HAL_GetTick() - tickstart ) > LSI_TIMEOUT_VALUE)
 8001ab2:	f7ff f8a7 	bl	8000c04 <HAL_GetTick>
 8001ab6:	4602      	mov	r2, r0
 8001ab8:	693b      	ldr	r3, [r7, #16]
 8001aba:	1ad3      	subs	r3, r2, r3
 8001abc:	2b02      	cmp	r3, #2
 8001abe:	d907      	bls.n	8001ad0 <HAL_RCC_OscConfig+0x280>
        {
          return HAL_TIMEOUT;
 8001ac0:	2303      	movs	r3, #3
 8001ac2:	e15c      	b.n	8001d7e <HAL_RCC_OscConfig+0x52e>
 8001ac4:	40023800 	.word	0x40023800
 8001ac8:	42470000 	.word	0x42470000
 8001acc:	42470e80 	.word	0x42470e80
      while(__HAL_RCC_GET_FLAG(RCC_FLAG_LSIRDY) != RESET)
 8001ad0:	4b8a      	ldr	r3, [pc, #552]	; (8001cfc <HAL_RCC_OscConfig+0x4ac>)
 8001ad2:	6f5b      	ldr	r3, [r3, #116]	; 0x74
 8001ad4:	f003 0302 	and.w	r3, r3, #2
 8001ad8:	2b00      	cmp	r3, #0
 8001ada:	d1ea      	bne.n	8001ab2 <HAL_RCC_OscConfig+0x262>
        }
      }
    }
  }
  /*------------------------------ LSE Configuration -------------------------*/
  if(((RCC_OscInitStruct->OscillatorType) & RCC_OSCILLATORTYPE_LSE) == RCC_OSCILLATORTYPE_LSE)
 8001adc:	687b      	ldr	r3, [r7, #4]
 8001ade:	681b      	ldr	r3, [r3, #0]
 8001ae0:	f003 0304 	and.w	r3, r3, #4
 8001ae4:	2b00      	cmp	r3, #0
 8001ae6:	f000 8097 	beq.w	8001c18 <HAL_RCC_OscConfig+0x3c8>
  {
    FlagStatus       pwrclkchanged = RESET;
 8001aea:	2300      	movs	r3, #0
 8001aec:	75fb      	strb	r3, [r7, #23]
    /* Check the parameters */
    assert_param(IS_RCC_LSE(RCC_OscInitStruct->LSEState));

    /* Update LSE configuration in Backup Domain control register    */
    /* Requires to enable write access to Backup Domain of necessary */
    if(__HAL_RCC_PWR_IS_CLK_DISABLED())
 8001aee:	4b83      	ldr	r3, [pc, #524]	; (8001cfc <HAL_RCC_OscConfig+0x4ac>)
 8001af0:	6c1b      	ldr	r3, [r3, #64]	; 0x40
 8001af2:	f003 5380 	and.w	r3, r3, #268435456	; 0x10000000
 8001af6:	2b00      	cmp	r3, #0
 8001af8:	d10f      	bne.n	8001b1a <HAL_RCC_OscConfig+0x2ca>
    {
      __HAL_RCC_PWR_CLK_ENABLE();
 8001afa:	2300      	movs	r3, #0
 8001afc:	60bb      	str	r3, [r7, #8]
 8001afe:	4b7f      	ldr	r3, [pc, #508]	; (8001cfc <HAL_RCC_OscConfig+0x4ac>)
 8001b00:	6c1b      	ldr	r3, [r3, #64]	; 0x40
 8001b02:	4a7e      	ldr	r2, [pc, #504]	; (8001cfc <HAL_RCC_OscConfig+0x4ac>)
 8001b04:	f043 5380 	orr.w	r3, r3, #268435456	; 0x10000000
 8001b08:	6413      	str	r3, [r2, #64]	; 0x40
 8001b0a:	4b7c      	ldr	r3, [pc, #496]	; (8001cfc <HAL_RCC_OscConfig+0x4ac>)
 8001b0c:	6c1b      	ldr	r3, [r3, #64]	; 0x40
 8001b0e:	f003 5380 	and.w	r3, r3, #268435456	; 0x10000000
 8001b12:	60bb      	str	r3, [r7, #8]
 8001b14:	68bb      	ldr	r3, [r7, #8]
      pwrclkchanged = SET;
 8001b16:	2301      	movs	r3, #1
 8001b18:	75fb      	strb	r3, [r7, #23]
    }

    if(HAL_IS_BIT_CLR(PWR->CR, PWR_CR_DBP))
 8001b1a:	4b79      	ldr	r3, [pc, #484]	; (8001d00 <HAL_RCC_OscConfig+0x4b0>)
 8001b1c:	681b      	ldr	r3, [r3, #0]
 8001b1e:	f403 7380 	and.w	r3, r3, #256	; 0x100
 8001b22:	2b00      	cmp	r3, #0
 8001b24:	d118      	bne.n	8001b58 <HAL_RCC_OscConfig+0x308>
    {
      /* Enable write access to Backup domain */
      SET_BIT(PWR->CR, PWR_CR_DBP);
 8001b26:	4b76      	ldr	r3, [pc, #472]	; (8001d00 <HAL_RCC_OscConfig+0x4b0>)
 8001b28:	681b      	ldr	r3, [r3, #0]
 8001b2a:	4a75      	ldr	r2, [pc, #468]	; (8001d00 <HAL_RCC_OscConfig+0x4b0>)
 8001b2c:	f443 7380 	orr.w	r3, r3, #256	; 0x100
 8001b30:	6013      	str	r3, [r2, #0]

      /* Wait for Backup domain Write protection disable */
      tickstart = HAL_GetTick();
 8001b32:	f7ff f867 	bl	8000c04 <HAL_GetTick>
 8001b36:	6138      	str	r0, [r7, #16]

      while(HAL_IS_BIT_CLR(PWR->CR, PWR_CR_DBP))
 8001b38:	e008      	b.n	8001b4c <HAL_RCC_OscConfig+0x2fc>
      {
        if((HAL_GetTick() - tickstart) > RCC_DBP_TIMEOUT_VALUE)
 8001b3a:	f7ff f863 	bl	8000c04 <HAL_GetTick>
 8001b3e:	4602      	mov	r2, r0
 8001b40:	693b      	ldr	r3, [r7, #16]
 8001b42:	1ad3      	subs	r3, r2, r3
 8001b44:	2b02      	cmp	r3, #2
 8001b46:	d901      	bls.n	8001b4c <HAL_RCC_OscConfig+0x2fc>
        {
          return HAL_TIMEOUT;
 8001b48:	2303      	movs	r3, #3
 8001b4a:	e118      	b.n	8001d7e <HAL_RCC_OscConfig+0x52e>
      while(HAL_IS_BIT_CLR(PWR->CR, PWR_CR_DBP))
 8001b4c:	4b6c      	ldr	r3, [pc, #432]	; (8001d00 <HAL_RCC_OscConfig+0x4b0>)
 8001b4e:	681b      	ldr	r3, [r3, #0]
 8001b50:	f403 7380 	and.w	r3, r3, #256	; 0x100
 8001b54:	2b00      	cmp	r3, #0
 8001b56:	d0f0      	beq.n	8001b3a <HAL_RCC_OscConfig+0x2ea>
        }
      }
    }

    /* Set the new LSE configuration -----------------------------------------*/
    __HAL_RCC_LSE_CONFIG(RCC_OscInitStruct->LSEState);
 8001b58:	687b      	ldr	r3, [r7, #4]
 8001b5a:	689b      	ldr	r3, [r3, #8]
 8001b5c:	2b01      	cmp	r3, #1
 8001b5e:	d106      	bne.n	8001b6e <HAL_RCC_OscConfig+0x31e>
 8001b60:	4b66      	ldr	r3, [pc, #408]	; (8001cfc <HAL_RCC_OscConfig+0x4ac>)
 8001b62:	6f1b      	ldr	r3, [r3, #112]	; 0x70
 8001b64:	4a65      	ldr	r2, [pc, #404]	; (8001cfc <HAL_RCC_OscConfig+0x4ac>)
 8001b66:	f043 0301 	orr.w	r3, r3, #1
 8001b6a:	6713      	str	r3, [r2, #112]	; 0x70
 8001b6c:	e01c      	b.n	8001ba8 <HAL_RCC_OscConfig+0x358>
 8001b6e:	687b      	ldr	r3, [r7, #4]
 8001b70:	689b      	ldr	r3, [r3, #8]
 8001b72:	2b05      	cmp	r3, #5
 8001b74:	d10c      	bne.n	8001b90 <HAL_RCC_OscConfig+0x340>
 8001b76:	4b61      	ldr	r3, [pc, #388]	; (8001cfc <HAL_RCC_OscConfig+0x4ac>)
 8001b78:	6f1b      	ldr	r3, [r3, #112]	; 0x70
 8001b7a:	4a60      	ldr	r2, [pc, #384]	; (8001cfc <HAL_RCC_OscConfig+0x4ac>)
 8001b7c:	f043 0304 	orr.w	r3, r3, #4
 8001b80:	6713      	str	r3, [r2, #112]	; 0x70
 8001b82:	4b5e      	ldr	r3, [pc, #376]	; (8001cfc <HAL_RCC_OscConfig+0x4ac>)
 8001b84:	6f1b      	ldr	r3, [r3, #112]	; 0x70
 8001b86:	4a5d      	ldr	r2, [pc, #372]	; (8001cfc <HAL_RCC_OscConfig+0x4ac>)
 8001b88:	f043 0301 	orr.w	r3, r3, #1
 8001b8c:	6713      	str	r3, [r2, #112]	; 0x70
 8001b8e:	e00b      	b.n	8001ba8 <HAL_RCC_OscConfig+0x358>
 8001b90:	4b5a      	ldr	r3, [pc, #360]	; (8001cfc <HAL_RCC_OscConfig+0x4ac>)
 8001b92:	6f1b      	ldr	r3, [r3, #112]	; 0x70
 8001b94:	4a59      	ldr	r2, [pc, #356]	; (8001cfc <HAL_RCC_OscConfig+0x4ac>)
 8001b96:	f023 0301 	bic.w	r3, r3, #1
 8001b9a:	6713      	str	r3, [r2, #112]	; 0x70
 8001b9c:	4b57      	ldr	r3, [pc, #348]	; (8001cfc <HAL_RCC_OscConfig+0x4ac>)
 8001b9e:	6f1b      	ldr	r3, [r3, #112]	; 0x70
 8001ba0:	4a56      	ldr	r2, [pc, #344]	; (8001cfc <HAL_RCC_OscConfig+0x4ac>)
 8001ba2:	f023 0304 	bic.w	r3, r3, #4
 8001ba6:	6713      	str	r3, [r2, #112]	; 0x70
    /* Check the LSE State */
    if((RCC_OscInitStruct->LSEState) != RCC_LSE_OFF)
 8001ba8:	687b      	ldr	r3, [r7, #4]
 8001baa:	689b      	ldr	r3, [r3, #8]
 8001bac:	2b00      	cmp	r3, #0
 8001bae:	d015      	beq.n	8001bdc <HAL_RCC_OscConfig+0x38c>
    {
      /* Get Start Tick*/
      tickstart = HAL_GetTick();
 8001bb0:	f7ff f828 	bl	8000c04 <HAL_GetTick>
 8001bb4:	6138      	str	r0, [r7, #16]

      /* Wait till LSE is ready */
      while(__HAL_RCC_GET_FLAG(RCC_FLAG_LSERDY) == RESET)
 8001bb6:	e00a      	b.n	8001bce <HAL_RCC_OscConfig+0x37e>
      {
        if((HAL_GetTick() - tickstart ) > RCC_LSE_TIMEOUT_VALUE)
 8001bb8:	f7ff f824 	bl	8000c04 <HAL_GetTick>
 8001bbc:	4602      	mov	r2, r0
 8001bbe:	693b      	ldr	r3, [r7, #16]
 8001bc0:	1ad3      	subs	r3, r2, r3
 8001bc2:	f241 3288 	movw	r2, #5000	; 0x1388
 8001bc6:	4293      	cmp	r3, r2
 8001bc8:	d901      	bls.n	8001bce <HAL_RCC_OscConfig+0x37e>
        {
          return HAL_TIMEOUT;
 8001bca:	2303      	movs	r3, #3
 8001bcc:	e0d7      	b.n	8001d7e <HAL_RCC_OscConfig+0x52e>
      while(__HAL_RCC_GET_FLAG(RCC_FLAG_LSERDY) == RESET)
 8001bce:	4b4b      	ldr	r3, [pc, #300]	; (8001cfc <HAL_RCC_OscConfig+0x4ac>)
 8001bd0:	6f1b      	ldr	r3, [r3, #112]	; 0x70
 8001bd2:	f003 0302 	and.w	r3, r3, #2
 8001bd6:	2b00      	cmp	r3, #0
 8001bd8:	d0ee      	beq.n	8001bb8 <HAL_RCC_OscConfig+0x368>
 8001bda:	e014      	b.n	8001c06 <HAL_RCC_OscConfig+0x3b6>
      }
    }
    else
    {
      /* Get Start Tick*/
      tickstart = HAL_GetTick();
 8001bdc:	f7ff f812 	bl	8000c04 <HAL_GetTick>
 8001be0:	6138      	str	r0, [r7, #16]

      /* Wait till LSE is ready */
      while(__HAL_RCC_GET_FLAG(RCC_FLAG_LSERDY) != RESET)
 8001be2:	e00a      	b.n	8001bfa <HAL_RCC_OscConfig+0x3aa>
      {
        if((HAL_GetTick() - tickstart ) > RCC_LSE_TIMEOUT_VALUE)
 8001be4:	f7ff f80e 	bl	8000c04 <HAL_GetTick>
 8001be8:	4602      	mov	r2, r0
 8001bea:	693b      	ldr	r3, [r7, #16]
 8001bec:	1ad3      	subs	r3, r2, r3
 8001bee:	f241 3288 	movw	r2, #5000	; 0x1388
 8001bf2:	4293      	cmp	r3, r2
 8001bf4:	d901      	bls.n	8001bfa <HAL_RCC_OscConfig+0x3aa>
        {
          return HAL_TIMEOUT;
 8001bf6:	2303      	movs	r3, #3
 8001bf8:	e0c1      	b.n	8001d7e <HAL_RCC_OscConfig+0x52e>
      while(__HAL_RCC_GET_FLAG(RCC_FLAG_LSERDY) != RESET)
 8001bfa:	4b40      	ldr	r3, [pc, #256]	; (8001cfc <HAL_RCC_OscConfig+0x4ac>)
 8001bfc:	6f1b      	ldr	r3, [r3, #112]	; 0x70
 8001bfe:	f003 0302 	and.w	r3, r3, #2
 8001c02:	2b00      	cmp	r3, #0
 8001c04:	d1ee      	bne.n	8001be4 <HAL_RCC_OscConfig+0x394>
        }
      }
    }

    /* Restore clock configuration if changed */
    if(pwrclkchanged == SET)
 8001c06:	7dfb      	ldrb	r3, [r7, #23]
 8001c08:	2b01      	cmp	r3, #1
 8001c0a:	d105      	bne.n	8001c18 <HAL_RCC_OscConfig+0x3c8>
    {
      __HAL_RCC_PWR_CLK_DISABLE();
 8001c0c:	4b3b      	ldr	r3, [pc, #236]	; (8001cfc <HAL_RCC_OscConfig+0x4ac>)
 8001c0e:	6c1b      	ldr	r3, [r3, #64]	; 0x40
 8001c10:	4a3a      	ldr	r2, [pc, #232]	; (8001cfc <HAL_RCC_OscConfig+0x4ac>)
 8001c12:	f023 5380 	bic.w	r3, r3, #268435456	; 0x10000000
 8001c16:	6413      	str	r3, [r2, #64]	; 0x40
    }
  }
  /*-------------------------------- PLL Configuration -----------------------*/
  /* Check the parameters */
  assert_param(IS_RCC_PLL(RCC_OscInitStruct->PLL.PLLState));
  if ((RCC_OscInitStruct->PLL.PLLState) != RCC_PLL_NONE)
 8001c18:	687b      	ldr	r3, [r7, #4]
 8001c1a:	699b      	ldr	r3, [r3, #24]
 8001c1c:	2b00      	cmp	r3, #0
 8001c1e:	f000 80ad 	beq.w	8001d7c <HAL_RCC_OscConfig+0x52c>
  {
    /* Check if the PLL is used as system clock or not */
    if(__HAL_RCC_GET_SYSCLK_SOURCE() != RCC_CFGR_SWS_PLL)
 8001c22:	4b36      	ldr	r3, [pc, #216]	; (8001cfc <HAL_RCC_OscConfig+0x4ac>)
 8001c24:	689b      	ldr	r3, [r3, #8]
 8001c26:	f003 030c 	and.w	r3, r3, #12
 8001c2a:	2b08      	cmp	r3, #8
 8001c2c:	d060      	beq.n	8001cf0 <HAL_RCC_OscConfig+0x4a0>
    {
      if((RCC_OscInitStruct->PLL.PLLState) == RCC_PLL_ON)
 8001c2e:	687b      	ldr	r3, [r7, #4]
 8001c30:	699b      	ldr	r3, [r3, #24]
 8001c32:	2b02      	cmp	r3, #2
 8001c34:	d145      	bne.n	8001cc2 <HAL_RCC_OscConfig+0x472>
        assert_param(IS_RCC_PLLP_VALUE(RCC_OscInitStruct->PLL.PLLP));
        assert_param(IS_RCC_PLLQ_VALUE(RCC_OscInitStruct->PLL.PLLQ));
        assert_param(IS_RCC_PLLR_VALUE(RCC_OscInitStruct->PLL.PLLR));

        /* Disable the main PLL. */
        __HAL_RCC_PLL_DISABLE();
 8001c36:	4b33      	ldr	r3, [pc, #204]	; (8001d04 <HAL_RCC_OscConfig+0x4b4>)
 8001c38:	2200      	movs	r2, #0
 8001c3a:	601a      	str	r2, [r3, #0]

        /* Get Start Tick*/
        tickstart = HAL_GetTick();
 8001c3c:	f7fe ffe2 	bl	8000c04 <HAL_GetTick>
 8001c40:	6138      	str	r0, [r7, #16]

        /* Wait till PLL is ready */
        while(__HAL_RCC_GET_FLAG(RCC_FLAG_PLLRDY) != RESET)
 8001c42:	e008      	b.n	8001c56 <HAL_RCC_OscConfig+0x406>
        {
          if((HAL_GetTick() - tickstart ) > PLL_TIMEOUT_VALUE)
 8001c44:	f7fe ffde 	bl	8000c04 <HAL_GetTick>
 8001c48:	4602      	mov	r2, r0
 8001c4a:	693b      	ldr	r3, [r7, #16]
 8001c4c:	1ad3      	subs	r3, r2, r3
 8001c4e:	2b02      	cmp	r3, #2
 8001c50:	d901      	bls.n	8001c56 <HAL_RCC_OscConfig+0x406>
          {
            return HAL_TIMEOUT;
 8001c52:	2303      	movs	r3, #3
 8001c54:	e093      	b.n	8001d7e <HAL_RCC_OscConfig+0x52e>
        while(__HAL_RCC_GET_FLAG(RCC_FLAG_PLLRDY) != RESET)
 8001c56:	4b29      	ldr	r3, [pc, #164]	; (8001cfc <HAL_RCC_OscConfig+0x4ac>)
 8001c58:	681b      	ldr	r3, [r3, #0]
 8001c5a:	f003 7300 	and.w	r3, r3, #33554432	; 0x2000000
 8001c5e:	2b00      	cmp	r3, #0
 8001c60:	d1f0      	bne.n	8001c44 <HAL_RCC_OscConfig+0x3f4>
          }
        }

        /* Configure the main PLL clock source, multiplication and division factors. */
        WRITE_REG(RCC->PLLCFGR, (RCC_OscInitStruct->PLL.PLLSource                                            | \
 8001c62:	687b      	ldr	r3, [r7, #4]
 8001c64:	69da      	ldr	r2, [r3, #28]
 8001c66:	687b      	ldr	r3, [r7, #4]
 8001c68:	6a1b      	ldr	r3, [r3, #32]
 8001c6a:	431a      	orrs	r2, r3
 8001c6c:	687b      	ldr	r3, [r7, #4]
 8001c6e:	6a5b      	ldr	r3, [r3, #36]	; 0x24
 8001c70:	019b      	lsls	r3, r3, #6
 8001c72:	431a      	orrs	r2, r3
 8001c74:	687b      	ldr	r3, [r7, #4]
 8001c76:	6a9b      	ldr	r3, [r3, #40]	; 0x28
 8001c78:	085b      	lsrs	r3, r3, #1
 8001c7a:	3b01      	subs	r3, #1
 8001c7c:	041b      	lsls	r3, r3, #16
 8001c7e:	431a      	orrs	r2, r3
 8001c80:	687b      	ldr	r3, [r7, #4]
 8001c82:	6adb      	ldr	r3, [r3, #44]	; 0x2c
 8001c84:	061b      	lsls	r3, r3, #24
 8001c86:	431a      	orrs	r2, r3
 8001c88:	687b      	ldr	r3, [r7, #4]
 8001c8a:	6b1b      	ldr	r3, [r3, #48]	; 0x30
 8001c8c:	071b      	lsls	r3, r3, #28
 8001c8e:	491b      	ldr	r1, [pc, #108]	; (8001cfc <HAL_RCC_OscConfig+0x4ac>)
 8001c90:	4313      	orrs	r3, r2
 8001c92:	604b      	str	r3, [r1, #4]
                                 (RCC_OscInitStruct->PLL.PLLN << RCC_PLLCFGR_PLLN_Pos)                       | \
                                 (((RCC_OscInitStruct->PLL.PLLP >> 1U) - 1U) << RCC_PLLCFGR_PLLP_Pos)        | \
                                 (RCC_OscInitStruct->PLL.PLLQ << RCC_PLLCFGR_PLLQ_Pos)                       | \
                                 (RCC_OscInitStruct->PLL.PLLR << RCC_PLLCFGR_PLLR_Pos)));
        /* Enable the main PLL. */
        __HAL_RCC_PLL_ENABLE();
 8001c94:	4b1b      	ldr	r3, [pc, #108]	; (8001d04 <HAL_RCC_OscConfig+0x4b4>)
 8001c96:	2201      	movs	r2, #1
 8001c98:	601a      	str	r2, [r3, #0]

        /* Get Start Tick*/
        tickstart = HAL_GetTick();
 8001c9a:	f7fe ffb3 	bl	8000c04 <HAL_GetTick>
 8001c9e:	6138      	str	r0, [r7, #16]

        /* Wait till PLL is ready */
        while(__HAL_RCC_GET_FLAG(RCC_FLAG_PLLRDY) == RESET)
 8001ca0:	e008      	b.n	8001cb4 <HAL_RCC_OscConfig+0x464>
        {
          if((HAL_GetTick() - tickstart ) > PLL_TIMEOUT_VALUE)
 8001ca2:	f7fe ffaf 	bl	8000c04 <HAL_GetTick>
 8001ca6:	4602      	mov	r2, r0
 8001ca8:	693b      	ldr	r3, [r7, #16]
 8001caa:	1ad3      	subs	r3, r2, r3
 8001cac:	2b02      	cmp	r3, #2
 8001cae:	d901      	bls.n	8001cb4 <HAL_RCC_OscConfig+0x464>
          {
            return HAL_TIMEOUT;
 8001cb0:	2303      	movs	r3, #3
 8001cb2:	e064      	b.n	8001d7e <HAL_RCC_OscConfig+0x52e>
        while(__HAL_RCC_GET_FLAG(RCC_FLAG_PLLRDY) == RESET)
 8001cb4:	4b11      	ldr	r3, [pc, #68]	; (8001cfc <HAL_RCC_OscConfig+0x4ac>)
 8001cb6:	681b      	ldr	r3, [r3, #0]
 8001cb8:	f003 7300 	and.w	r3, r3, #33554432	; 0x2000000
 8001cbc:	2b00      	cmp	r3, #0
 8001cbe:	d0f0      	beq.n	8001ca2 <HAL_RCC_OscConfig+0x452>
 8001cc0:	e05c      	b.n	8001d7c <HAL_RCC_OscConfig+0x52c>
        }
      }
      else
      {
        /* Disable the main PLL. */
        __HAL_RCC_PLL_DISABLE();
 8001cc2:	4b10      	ldr	r3, [pc, #64]	; (8001d04 <HAL_RCC_OscConfig+0x4b4>)
 8001cc4:	2200      	movs	r2, #0
 8001cc6:	601a      	str	r2, [r3, #0]

        /* Get Start Tick*/
        tickstart = HAL_GetTick();
 8001cc8:	f7fe ff9c 	bl	8000c04 <HAL_GetTick>
 8001ccc:	6138      	str	r0, [r7, #16]

        /* Wait till PLL is ready */
        while(__HAL_RCC_GET_FLAG(RCC_FLAG_PLLRDY) != RESET)
 8001cce:	e008      	b.n	8001ce2 <HAL_RCC_OscConfig+0x492>
        {
          if((HAL_GetTick() - tickstart ) > PLL_TIMEOUT_VALUE)
 8001cd0:	f7fe ff98 	bl	8000c04 <HAL_GetTick>
 8001cd4:	4602      	mov	r2, r0
 8001cd6:	693b      	ldr	r3, [r7, #16]
 8001cd8:	1ad3      	subs	r3, r2, r3
 8001cda:	2b02      	cmp	r3, #2
 8001cdc:	d901      	bls.n	8001ce2 <HAL_RCC_OscConfig+0x492>
          {
            return HAL_TIMEOUT;
 8001cde:	2303      	movs	r3, #3
 8001ce0:	e04d      	b.n	8001d7e <HAL_RCC_OscConfig+0x52e>
        while(__HAL_RCC_GET_FLAG(RCC_FLAG_PLLRDY) != RESET)
 8001ce2:	4b06      	ldr	r3, [pc, #24]	; (8001cfc <HAL_RCC_OscConfig+0x4ac>)
 8001ce4:	681b      	ldr	r3, [r3, #0]
 8001ce6:	f003 7300 	and.w	r3, r3, #33554432	; 0x2000000
 8001cea:	2b00      	cmp	r3, #0
 8001cec:	d1f0      	bne.n	8001cd0 <HAL_RCC_OscConfig+0x480>
 8001cee:	e045      	b.n	8001d7c <HAL_RCC_OscConfig+0x52c>
      }
    }
    else
    {
      /* Check if there is a request to disable the PLL used as System clock source */
      if((RCC_OscInitStruct->PLL.PLLState) == RCC_PLL_OFF)
 8001cf0:	687b      	ldr	r3, [r7, #4]
 8001cf2:	699b      	ldr	r3, [r3, #24]
 8001cf4:	2b01      	cmp	r3, #1
 8001cf6:	d107      	bne.n	8001d08 <HAL_RCC_OscConfig+0x4b8>
      {
        return HAL_ERROR;
 8001cf8:	2301      	movs	r3, #1
 8001cfa:	e040      	b.n	8001d7e <HAL_RCC_OscConfig+0x52e>
 8001cfc:	40023800 	.word	0x40023800
 8001d00:	40007000 	.word	0x40007000
 8001d04:	42470060 	.word	0x42470060
      }
      else
      {
        /* Do not return HAL_ERROR if request repeats the current configuration */
        pll_config = RCC->PLLCFGR;
 8001d08:	4b1f      	ldr	r3, [pc, #124]	; (8001d88 <HAL_RCC_OscConfig+0x538>)
 8001d0a:	685b      	ldr	r3, [r3, #4]
 8001d0c:	60fb      	str	r3, [r7, #12]
#if defined (RCC_PLLCFGR_PLLR)
        if (((RCC_OscInitStruct->PLL.PLLState) == RCC_PLL_OFF) ||
 8001d0e:	687b      	ldr	r3, [r7, #4]
 8001d10:	699b      	ldr	r3, [r3, #24]
 8001d12:	2b01      	cmp	r3, #1
 8001d14:	d030      	beq.n	8001d78 <HAL_RCC_OscConfig+0x528>
            (READ_BIT(pll_config, RCC_PLLCFGR_PLLSRC) != RCC_OscInitStruct->PLL.PLLSource) ||
 8001d16:	68fb      	ldr	r3, [r7, #12]
 8001d18:	f403 0280 	and.w	r2, r3, #4194304	; 0x400000
 8001d1c:	687b      	ldr	r3, [r7, #4]
 8001d1e:	69db      	ldr	r3, [r3, #28]
        if (((RCC_OscInitStruct->PLL.PLLState) == RCC_PLL_OFF) ||
 8001d20:	429a      	cmp	r2, r3
 8001d22:	d129      	bne.n	8001d78 <HAL_RCC_OscConfig+0x528>
            (READ_BIT(pll_config, RCC_PLLCFGR_PLLM) != (RCC_OscInitStruct->PLL.PLLM) << RCC_PLLCFGR_PLLM_Pos) ||
 8001d24:	68fb      	ldr	r3, [r7, #12]
 8001d26:	f003 023f 	and.w	r2, r3, #63	; 0x3f
 8001d2a:	687b      	ldr	r3, [r7, #4]
 8001d2c:	6a1b      	ldr	r3, [r3, #32]
            (READ_BIT(pll_config, RCC_PLLCFGR_PLLSRC) != RCC_OscInitStruct->PLL.PLLSource) ||
 8001d2e:	429a      	cmp	r2, r3
 8001d30:	d122      	bne.n	8001d78 <HAL_RCC_OscConfig+0x528>
            (READ_BIT(pll_config, RCC_PLLCFGR_PLLN) != (RCC_OscInitStruct->PLL.PLLN) << RCC_PLLCFGR_PLLN_Pos) ||
 8001d32:	68fa      	ldr	r2, [r7, #12]
 8001d34:	f647 73c0 	movw	r3, #32704	; 0x7fc0
 8001d38:	4013      	ands	r3, r2
 8001d3a:	687a      	ldr	r2, [r7, #4]
 8001d3c:	6a52      	ldr	r2, [r2, #36]	; 0x24
 8001d3e:	0192      	lsls	r2, r2, #6
            (READ_BIT(pll_config, RCC_PLLCFGR_PLLM) != (RCC_OscInitStruct->PLL.PLLM) << RCC_PLLCFGR_PLLM_Pos) ||
 8001d40:	4293      	cmp	r3, r2
 8001d42:	d119      	bne.n	8001d78 <HAL_RCC_OscConfig+0x528>
            (READ_BIT(pll_config, RCC_PLLCFGR_PLLP) != (((RCC_OscInitStruct->PLL.PLLP >> 1U) - 1U)) << RCC_PLLCFGR_PLLP_Pos) ||
 8001d44:	68fb      	ldr	r3, [r7, #12]
 8001d46:	f403 3240 	and.w	r2, r3, #196608	; 0x30000
 8001d4a:	687b      	ldr	r3, [r7, #4]
 8001d4c:	6a9b      	ldr	r3, [r3, #40]	; 0x28
 8001d4e:	085b      	lsrs	r3, r3, #1
 8001d50:	3b01      	subs	r3, #1
 8001d52:	041b      	lsls	r3, r3, #16
            (READ_BIT(pll_config, RCC_PLLCFGR_PLLN) != (RCC_OscInitStruct->PLL.PLLN) << RCC_PLLCFGR_PLLN_Pos) ||
 8001d54:	429a      	cmp	r2, r3
 8001d56:	d10f      	bne.n	8001d78 <HAL_RCC_OscConfig+0x528>
            (READ_BIT(pll_config, RCC_PLLCFGR_PLLQ) != (RCC_OscInitStruct->PLL.PLLQ << RCC_PLLCFGR_PLLQ_Pos)) ||
 8001d58:	68fb      	ldr	r3, [r7, #12]
 8001d5a:	f003 6270 	and.w	r2, r3, #251658240	; 0xf000000
 8001d5e:	687b      	ldr	r3, [r7, #4]
 8001d60:	6adb      	ldr	r3, [r3, #44]	; 0x2c
 8001d62:	061b      	lsls	r3, r3, #24
            (READ_BIT(pll_config, RCC_PLLCFGR_PLLP) != (((RCC_OscInitStruct->PLL.PLLP >> 1U) - 1U)) << RCC_PLLCFGR_PLLP_Pos) ||
 8001d64:	429a      	cmp	r2, r3
 8001d66:	d107      	bne.n	8001d78 <HAL_RCC_OscConfig+0x528>
            (READ_BIT(pll_config, RCC_PLLCFGR_PLLR) != (RCC_OscInitStruct->PLL.PLLR << RCC_PLLCFGR_PLLR_Pos)))
 8001d68:	68fb      	ldr	r3, [r7, #12]
 8001d6a:	f003 42e0 	and.w	r2, r3, #1879048192	; 0x70000000
 8001d6e:	687b      	ldr	r3, [r7, #4]
 8001d70:	6b1b      	ldr	r3, [r3, #48]	; 0x30
 8001d72:	071b      	lsls	r3, r3, #28
            (READ_BIT(pll_config, RCC_PLLCFGR_PLLQ) != (RCC_OscInitStruct->PLL.PLLQ << RCC_PLLCFGR_PLLQ_Pos)) ||
 8001d74:	429a      	cmp	r2, r3
 8001d76:	d001      	beq.n	8001d7c <HAL_RCC_OscConfig+0x52c>
            (READ_BIT(pll_config, RCC_PLLCFGR_PLLN) != (RCC_OscInitStruct->PLL.PLLN) << RCC_PLLCFGR_PLLN_Pos) ||
            (READ_BIT(pll_config, RCC_PLLCFGR_PLLP) != (((RCC_OscInitStruct->PLL.PLLP >> 1U) - 1U)) << RCC_PLLCFGR_PLLP_Pos) ||
            (READ_BIT(pll_config, RCC_PLLCFGR_PLLQ) != (RCC_OscInitStruct->PLL.PLLQ << RCC_PLLCFGR_PLLQ_Pos)))
#endif
        {
          return HAL_ERROR;
 8001d78:	2301      	movs	r3, #1
 8001d7a:	e000      	b.n	8001d7e <HAL_RCC_OscConfig+0x52e>
        }
      }
    }
  }
  return HAL_OK;
 8001d7c:	2300      	movs	r3, #0
}
 8001d7e:	4618      	mov	r0, r3
 8001d80:	3718      	adds	r7, #24
 8001d82:	46bd      	mov	sp, r7
 8001d84:	bd80      	pop	{r7, pc}
 8001d86:	bf00      	nop
 8001d88:	40023800 	.word	0x40023800

08001d8c <HAL_TIM_PWM_Init>:
  *         Ex: call @ref HAL_TIM_PWM_DeInit() before HAL_TIM_PWM_Init()
  * @param  htim TIM PWM handle
  * @retval HAL status
  */
HAL_StatusTypeDef HAL_TIM_PWM_Init(TIM_HandleTypeDef *htim)
{
 8001d8c:	b580      	push	{r7, lr}
 8001d8e:	b082      	sub	sp, #8
 8001d90:	af00      	add	r7, sp, #0
 8001d92:	6078      	str	r0, [r7, #4]
  /* Check the TIM handle allocation */
  if (htim == NULL)
 8001d94:	687b      	ldr	r3, [r7, #4]
 8001d96:	2b00      	cmp	r3, #0
 8001d98:	d101      	bne.n	8001d9e <HAL_TIM_PWM_Init+0x12>
  {
    return HAL_ERROR;
 8001d9a:	2301      	movs	r3, #1
 8001d9c:	e041      	b.n	8001e22 <HAL_TIM_PWM_Init+0x96>
  assert_param(IS_TIM_INSTANCE(htim->Instance));
  assert_param(IS_TIM_COUNTER_MODE(htim->Init.CounterMode));
  assert_param(IS_TIM_CLOCKDIVISION_DIV(htim->Init.ClockDivision));
  assert_param(IS_TIM_AUTORELOAD_PRELOAD(htim->Init.AutoReloadPreload));

  if (htim->State == HAL_TIM_STATE_RESET)
 8001d9e:	687b      	ldr	r3, [r7, #4]
 8001da0:	f893 303d 	ldrb.w	r3, [r3, #61]	; 0x3d
 8001da4:	b2db      	uxtb	r3, r3
 8001da6:	2b00      	cmp	r3, #0
 8001da8:	d106      	bne.n	8001db8 <HAL_TIM_PWM_Init+0x2c>
  {
    /* Allocate lock resource and initialize it */
    htim->Lock = HAL_UNLOCKED;
 8001daa:	687b      	ldr	r3, [r7, #4]
 8001dac:	2200      	movs	r2, #0
 8001dae:	f883 203c 	strb.w	r2, [r3, #60]	; 0x3c
    }
    /* Init the low level hardware : GPIO, CLOCK, NVIC */
    htim->PWM_MspInitCallback(htim);
#else
    /* Init the low level hardware : GPIO, CLOCK, NVIC and DMA */
    HAL_TIM_PWM_MspInit(htim);
 8001db2:	6878      	ldr	r0, [r7, #4]
 8001db4:	f7fe fdc8 	bl	8000948 <HAL_TIM_PWM_MspInit>
#endif /* USE_HAL_TIM_REGISTER_CALLBACKS */
  }

  /* Set the TIM state */
  htim->State = HAL_TIM_STATE_BUSY;
 8001db8:	687b      	ldr	r3, [r7, #4]
 8001dba:	2202      	movs	r2, #2
 8001dbc:	f883 203d 	strb.w	r2, [r3, #61]	; 0x3d

  /* Init the base time for the PWM */
  TIM_Base_SetConfig(htim->Instance, &htim->Init);
 8001dc0:	687b      	ldr	r3, [r7, #4]
 8001dc2:	681a      	ldr	r2, [r3, #0]
 8001dc4:	687b      	ldr	r3, [r7, #4]
 8001dc6:	3304      	adds	r3, #4
 8001dc8:	4619      	mov	r1, r3
 8001dca:	4610      	mov	r0, r2
 8001dcc:	f000 fb2c 	bl	8002428 <TIM_Base_SetConfig>

  /* Initialize the DMA burst operation state */
  htim->DMABurstState = HAL_DMA_BURST_STATE_READY;
 8001dd0:	687b      	ldr	r3, [r7, #4]
 8001dd2:	2201      	movs	r2, #1
 8001dd4:	f883 2046 	strb.w	r2, [r3, #70]	; 0x46

  /* Initialize the TIM channels state */
  TIM_CHANNEL_STATE_SET_ALL(htim, HAL_TIM_CHANNEL_STATE_READY);
 8001dd8:	687b      	ldr	r3, [r7, #4]
 8001dda:	2201      	movs	r2, #1
 8001ddc:	f883 203e 	strb.w	r2, [r3, #62]	; 0x3e
 8001de0:	687b      	ldr	r3, [r7, #4]
 8001de2:	2201      	movs	r2, #1
 8001de4:	f883 203f 	strb.w	r2, [r3, #63]	; 0x3f
 8001de8:	687b      	ldr	r3, [r7, #4]
 8001dea:	2201      	movs	r2, #1
 8001dec:	f883 2040 	strb.w	r2, [r3, #64]	; 0x40
 8001df0:	687b      	ldr	r3, [r7, #4]
 8001df2:	2201      	movs	r2, #1
 8001df4:	f883 2041 	strb.w	r2, [r3, #65]	; 0x41
  TIM_CHANNEL_N_STATE_SET_ALL(htim, HAL_TIM_CHANNEL_STATE_READY);
 8001df8:	687b      	ldr	r3, [r7, #4]
 8001dfa:	2201      	movs	r2, #1
 8001dfc:	f883 2042 	strb.w	r2, [r3, #66]	; 0x42
 8001e00:	687b      	ldr	r3, [r7, #4]
 8001e02:	2201      	movs	r2, #1
 8001e04:	f883 2043 	strb.w	r2, [r3, #67]	; 0x43
 8001e08:	687b      	ldr	r3, [r7, #4]
 8001e0a:	2201      	movs	r2, #1
 8001e0c:	f883 2044 	strb.w	r2, [r3, #68]	; 0x44
 8001e10:	687b      	ldr	r3, [r7, #4]
 8001e12:	2201      	movs	r2, #1
 8001e14:	f883 2045 	strb.w	r2, [r3, #69]	; 0x45

  /* Initialize the TIM state*/
  htim->State = HAL_TIM_STATE_READY;
 8001e18:	687b      	ldr	r3, [r7, #4]
 8001e1a:	2201      	movs	r2, #1
 8001e1c:	f883 203d 	strb.w	r2, [r3, #61]	; 0x3d

  return HAL_OK;
 8001e20:	2300      	movs	r3, #0
}
 8001e22:	4618      	mov	r0, r3
 8001e24:	3708      	adds	r7, #8
 8001e26:	46bd      	mov	sp, r7
 8001e28:	bd80      	pop	{r7, pc}
	...

08001e2c <HAL_TIM_PWM_Start>:
  *            @arg TIM_CHANNEL_3: TIM Channel 3 selected
  *            @arg TIM_CHANNEL_4: TIM Channel 4 selected
  * @retval HAL status
  */
HAL_StatusTypeDef HAL_TIM_PWM_Start(TIM_HandleTypeDef *htim, uint32_t Channel)
{
 8001e2c:	b580      	push	{r7, lr}
 8001e2e:	b084      	sub	sp, #16
 8001e30:	af00      	add	r7, sp, #0
 8001e32:	6078      	str	r0, [r7, #4]
 8001e34:	6039      	str	r1, [r7, #0]

  /* Check the parameters */
  assert_param(IS_TIM_CCX_INSTANCE(htim->Instance, Channel));

  /* Check the TIM channel state */
  if (TIM_CHANNEL_STATE_GET(htim, Channel) != HAL_TIM_CHANNEL_STATE_READY)
 8001e36:	683b      	ldr	r3, [r7, #0]
 8001e38:	2b00      	cmp	r3, #0
 8001e3a:	d109      	bne.n	8001e50 <HAL_TIM_PWM_Start+0x24>
 8001e3c:	687b      	ldr	r3, [r7, #4]
 8001e3e:	f893 303e 	ldrb.w	r3, [r3, #62]	; 0x3e
 8001e42:	b2db      	uxtb	r3, r3
 8001e44:	2b01      	cmp	r3, #1
 8001e46:	bf14      	ite	ne
 8001e48:	2301      	movne	r3, #1
 8001e4a:	2300      	moveq	r3, #0
 8001e4c:	b2db      	uxtb	r3, r3
 8001e4e:	e022      	b.n	8001e96 <HAL_TIM_PWM_Start+0x6a>
 8001e50:	683b      	ldr	r3, [r7, #0]
 8001e52:	2b04      	cmp	r3, #4
 8001e54:	d109      	bne.n	8001e6a <HAL_TIM_PWM_Start+0x3e>
 8001e56:	687b      	ldr	r3, [r7, #4]
 8001e58:	f893 303f 	ldrb.w	r3, [r3, #63]	; 0x3f
 8001e5c:	b2db      	uxtb	r3, r3
 8001e5e:	2b01      	cmp	r3, #1
 8001e60:	bf14      	ite	ne
 8001e62:	2301      	movne	r3, #1
 8001e64:	2300      	moveq	r3, #0
 8001e66:	b2db      	uxtb	r3, r3
 8001e68:	e015      	b.n	8001e96 <HAL_TIM_PWM_Start+0x6a>
 8001e6a:	683b      	ldr	r3, [r7, #0]
 8001e6c:	2b08      	cmp	r3, #8
 8001e6e:	d109      	bne.n	8001e84 <HAL_TIM_PWM_Start+0x58>
 8001e70:	687b      	ldr	r3, [r7, #4]
 8001e72:	f893 3040 	ldrb.w	r3, [r3, #64]	; 0x40
 8001e76:	b2db      	uxtb	r3, r3
 8001e78:	2b01      	cmp	r3, #1
 8001e7a:	bf14      	ite	ne
 8001e7c:	2301      	movne	r3, #1
 8001e7e:	2300      	moveq	r3, #0
 8001e80:	b2db      	uxtb	r3, r3
 8001e82:	e008      	b.n	8001e96 <HAL_TIM_PWM_Start+0x6a>
 8001e84:	687b      	ldr	r3, [r7, #4]
 8001e86:	f893 3041 	ldrb.w	r3, [r3, #65]	; 0x41
 8001e8a:	b2db      	uxtb	r3, r3
 8001e8c:	2b01      	cmp	r3, #1
 8001e8e:	bf14      	ite	ne
 8001e90:	2301      	movne	r3, #1
 8001e92:	2300      	moveq	r3, #0
 8001e94:	b2db      	uxtb	r3, r3
 8001e96:	2b00      	cmp	r3, #0
 8001e98:	d001      	beq.n	8001e9e <HAL_TIM_PWM_Start+0x72>
  {
    return HAL_ERROR;
 8001e9a:	2301      	movs	r3, #1
 8001e9c:	e07c      	b.n	8001f98 <HAL_TIM_PWM_Start+0x16c>
  }

  /* Set the TIM channel state */
  TIM_CHANNEL_STATE_SET(htim, Channel, HAL_TIM_CHANNEL_STATE_BUSY);
 8001e9e:	683b      	ldr	r3, [r7, #0]
 8001ea0:	2b00      	cmp	r3, #0
 8001ea2:	d104      	bne.n	8001eae <HAL_TIM_PWM_Start+0x82>
 8001ea4:	687b      	ldr	r3, [r7, #4]
 8001ea6:	2202      	movs	r2, #2
 8001ea8:	f883 203e 	strb.w	r2, [r3, #62]	; 0x3e
 8001eac:	e013      	b.n	8001ed6 <HAL_TIM_PWM_Start+0xaa>
 8001eae:	683b      	ldr	r3, [r7, #0]
 8001eb0:	2b04      	cmp	r3, #4
 8001eb2:	d104      	bne.n	8001ebe <HAL_TIM_PWM_Start+0x92>
 8001eb4:	687b      	ldr	r3, [r7, #4]
 8001eb6:	2202      	movs	r2, #2
 8001eb8:	f883 203f 	strb.w	r2, [r3, #63]	; 0x3f
 8001ebc:	e00b      	b.n	8001ed6 <HAL_TIM_PWM_Start+0xaa>
 8001ebe:	683b      	ldr	r3, [r7, #0]
 8001ec0:	2b08      	cmp	r3, #8
 8001ec2:	d104      	bne.n	8001ece <HAL_TIM_PWM_Start+0xa2>
 8001ec4:	687b      	ldr	r3, [r7, #4]
 8001ec6:	2202      	movs	r2, #2
 8001ec8:	f883 2040 	strb.w	r2, [r3, #64]	; 0x40
 8001ecc:	e003      	b.n	8001ed6 <HAL_TIM_PWM_Start+0xaa>
 8001ece:	687b      	ldr	r3, [r7, #4]
 8001ed0:	2202      	movs	r2, #2
 8001ed2:	f883 2041 	strb.w	r2, [r3, #65]	; 0x41

  /* Enable the Capture compare channel */
  TIM_CCxChannelCmd(htim->Instance, Channel, TIM_CCx_ENABLE);
 8001ed6:	687b      	ldr	r3, [r7, #4]
 8001ed8:	681b      	ldr	r3, [r3, #0]
 8001eda:	2201      	movs	r2, #1
 8001edc:	6839      	ldr	r1, [r7, #0]
 8001ede:	4618      	mov	r0, r3
 8001ee0:	f000 fcf2 	bl	80028c8 <TIM_CCxChannelCmd>

  if (IS_TIM_BREAK_INSTANCE(htim->Instance) != RESET)
 8001ee4:	687b      	ldr	r3, [r7, #4]
 8001ee6:	681b      	ldr	r3, [r3, #0]
 8001ee8:	4a2d      	ldr	r2, [pc, #180]	; (8001fa0 <HAL_TIM_PWM_Start+0x174>)
 8001eea:	4293      	cmp	r3, r2
 8001eec:	d004      	beq.n	8001ef8 <HAL_TIM_PWM_Start+0xcc>
 8001eee:	687b      	ldr	r3, [r7, #4]
 8001ef0:	681b      	ldr	r3, [r3, #0]
 8001ef2:	4a2c      	ldr	r2, [pc, #176]	; (8001fa4 <HAL_TIM_PWM_Start+0x178>)
 8001ef4:	4293      	cmp	r3, r2
 8001ef6:	d101      	bne.n	8001efc <HAL_TIM_PWM_Start+0xd0>
 8001ef8:	2301      	movs	r3, #1
 8001efa:	e000      	b.n	8001efe <HAL_TIM_PWM_Start+0xd2>
 8001efc:	2300      	movs	r3, #0
 8001efe:	2b00      	cmp	r3, #0
 8001f00:	d007      	beq.n	8001f12 <HAL_TIM_PWM_Start+0xe6>
  {
    /* Enable the main output */
    __HAL_TIM_MOE_ENABLE(htim);
 8001f02:	687b      	ldr	r3, [r7, #4]
 8001f04:	681b      	ldr	r3, [r3, #0]
 8001f06:	6c5a      	ldr	r2, [r3, #68]	; 0x44
 8001f08:	687b      	ldr	r3, [r7, #4]
 8001f0a:	681b      	ldr	r3, [r3, #0]
 8001f0c:	f442 4200 	orr.w	r2, r2, #32768	; 0x8000
 8001f10:	645a      	str	r2, [r3, #68]	; 0x44
  }

  /* Enable the Peripheral, except in trigger mode where enable is automatically done with trigger */
  if (IS_TIM_SLAVE_INSTANCE(htim->Instance))
 8001f12:	687b      	ldr	r3, [r7, #4]
 8001f14:	681b      	ldr	r3, [r3, #0]
 8001f16:	4a22      	ldr	r2, [pc, #136]	; (8001fa0 <HAL_TIM_PWM_Start+0x174>)
 8001f18:	4293      	cmp	r3, r2
 8001f1a:	d022      	beq.n	8001f62 <HAL_TIM_PWM_Start+0x136>
 8001f1c:	687b      	ldr	r3, [r7, #4]
 8001f1e:	681b      	ldr	r3, [r3, #0]
 8001f20:	f1b3 4f80 	cmp.w	r3, #1073741824	; 0x40000000
 8001f24:	d01d      	beq.n	8001f62 <HAL_TIM_PWM_Start+0x136>
 8001f26:	687b      	ldr	r3, [r7, #4]
 8001f28:	681b      	ldr	r3, [r3, #0]
 8001f2a:	4a1f      	ldr	r2, [pc, #124]	; (8001fa8 <HAL_TIM_PWM_Start+0x17c>)
 8001f2c:	4293      	cmp	r3, r2
 8001f2e:	d018      	beq.n	8001f62 <HAL_TIM_PWM_Start+0x136>
 8001f30:	687b      	ldr	r3, [r7, #4]
 8001f32:	681b      	ldr	r3, [r3, #0]
 8001f34:	4a1d      	ldr	r2, [pc, #116]	; (8001fac <HAL_TIM_PWM_Start+0x180>)
 8001f36:	4293      	cmp	r3, r2
 8001f38:	d013      	beq.n	8001f62 <HAL_TIM_PWM_Start+0x136>
 8001f3a:	687b      	ldr	r3, [r7, #4]
 8001f3c:	681b      	ldr	r3, [r3, #0]
 8001f3e:	4a1c      	ldr	r2, [pc, #112]	; (8001fb0 <HAL_TIM_PWM_Start+0x184>)
 8001f40:	4293      	cmp	r3, r2
 8001f42:	d00e      	beq.n	8001f62 <HAL_TIM_PWM_Start+0x136>
 8001f44:	687b      	ldr	r3, [r7, #4]
 8001f46:	681b      	ldr	r3, [r3, #0]
 8001f48:	4a16      	ldr	r2, [pc, #88]	; (8001fa4 <HAL_TIM_PWM_Start+0x178>)
 8001f4a:	4293      	cmp	r3, r2
 8001f4c:	d009      	beq.n	8001f62 <HAL_TIM_PWM_Start+0x136>
 8001f4e:	687b      	ldr	r3, [r7, #4]
 8001f50:	681b      	ldr	r3, [r3, #0]
 8001f52:	4a18      	ldr	r2, [pc, #96]	; (8001fb4 <HAL_TIM_PWM_Start+0x188>)
 8001f54:	4293      	cmp	r3, r2
 8001f56:	d004      	beq.n	8001f62 <HAL_TIM_PWM_Start+0x136>
 8001f58:	687b      	ldr	r3, [r7, #4]
 8001f5a:	681b      	ldr	r3, [r3, #0]
 8001f5c:	4a16      	ldr	r2, [pc, #88]	; (8001fb8 <HAL_TIM_PWM_Start+0x18c>)
 8001f5e:	4293      	cmp	r3, r2
 8001f60:	d111      	bne.n	8001f86 <HAL_TIM_PWM_Start+0x15a>
  {
    tmpsmcr = htim->Instance->SMCR & TIM_SMCR_SMS;
 8001f62:	687b      	ldr	r3, [r7, #4]
 8001f64:	681b      	ldr	r3, [r3, #0]
 8001f66:	689b      	ldr	r3, [r3, #8]
 8001f68:	f003 0307 	and.w	r3, r3, #7
 8001f6c:	60fb      	str	r3, [r7, #12]
    if (!IS_TIM_SLAVEMODE_TRIGGER_ENABLED(tmpsmcr))
 8001f6e:	68fb      	ldr	r3, [r7, #12]
 8001f70:	2b06      	cmp	r3, #6
 8001f72:	d010      	beq.n	8001f96 <HAL_TIM_PWM_Start+0x16a>
    {
      __HAL_TIM_ENABLE(htim);
 8001f74:	687b      	ldr	r3, [r7, #4]
 8001f76:	681b      	ldr	r3, [r3, #0]
 8001f78:	681a      	ldr	r2, [r3, #0]
 8001f7a:	687b      	ldr	r3, [r7, #4]
 8001f7c:	681b      	ldr	r3, [r3, #0]
 8001f7e:	f042 0201 	orr.w	r2, r2, #1
 8001f82:	601a      	str	r2, [r3, #0]
    if (!IS_TIM_SLAVEMODE_TRIGGER_ENABLED(tmpsmcr))
 8001f84:	e007      	b.n	8001f96 <HAL_TIM_PWM_Start+0x16a>
    }
  }
  else
  {
    __HAL_TIM_ENABLE(htim);
 8001f86:	687b      	ldr	r3, [r7, #4]
 8001f88:	681b      	ldr	r3, [r3, #0]
 8001f8a:	681a      	ldr	r2, [r3, #0]
 8001f8c:	687b      	ldr	r3, [r7, #4]
 8001f8e:	681b      	ldr	r3, [r3, #0]
 8001f90:	f042 0201 	orr.w	r2, r2, #1
 8001f94:	601a      	str	r2, [r3, #0]
  }

  /* Return function status */
  return HAL_OK;
 8001f96:	2300      	movs	r3, #0
}
 8001f98:	4618      	mov	r0, r3
 8001f9a:	3710      	adds	r7, #16
 8001f9c:	46bd      	mov	sp, r7
 8001f9e:	bd80      	pop	{r7, pc}
 8001fa0:	40010000 	.word	0x40010000
 8001fa4:	40010400 	.word	0x40010400
 8001fa8:	40000400 	.word	0x40000400
 8001fac:	40000800 	.word	0x40000800
 8001fb0:	40000c00 	.word	0x40000c00
 8001fb4:	40014000 	.word	0x40014000
 8001fb8:	40001800 	.word	0x40001800

08001fbc <HAL_TIM_IRQHandler>:
  * @brief  This function handles TIM interrupts requests.
  * @param  htim TIM  handle
  * @retval None
  */
void HAL_TIM_IRQHandler(TIM_HandleTypeDef *htim)
{
 8001fbc:	b580      	push	{r7, lr}
 8001fbe:	b082      	sub	sp, #8
 8001fc0:	af00      	add	r7, sp, #0
 8001fc2:	6078      	str	r0, [r7, #4]
  /* Capture compare 1 event */
  if (__HAL_TIM_GET_FLAG(htim, TIM_FLAG_CC1) != RESET)
 8001fc4:	687b      	ldr	r3, [r7, #4]
 8001fc6:	681b      	ldr	r3, [r3, #0]
 8001fc8:	691b      	ldr	r3, [r3, #16]
 8001fca:	f003 0302 	and.w	r3, r3, #2
 8001fce:	2b02      	cmp	r3, #2
 8001fd0:	d122      	bne.n	8002018 <HAL_TIM_IRQHandler+0x5c>
  {
    if (__HAL_TIM_GET_IT_SOURCE(htim, TIM_IT_CC1) != RESET)
 8001fd2:	687b      	ldr	r3, [r7, #4]
 8001fd4:	681b      	ldr	r3, [r3, #0]
 8001fd6:	68db      	ldr	r3, [r3, #12]
 8001fd8:	f003 0302 	and.w	r3, r3, #2
 8001fdc:	2b02      	cmp	r3, #2
 8001fde:	d11b      	bne.n	8002018 <HAL_TIM_IRQHandler+0x5c>
    {
      {
        __HAL_TIM_CLEAR_IT(htim, TIM_IT_CC1);
 8001fe0:	687b      	ldr	r3, [r7, #4]
 8001fe2:	681b      	ldr	r3, [r3, #0]
 8001fe4:	f06f 0202 	mvn.w	r2, #2
 8001fe8:	611a      	str	r2, [r3, #16]
        htim->Channel = HAL_TIM_ACTIVE_CHANNEL_1;
 8001fea:	687b      	ldr	r3, [r7, #4]
 8001fec:	2201      	movs	r2, #1
 8001fee:	771a      	strb	r2, [r3, #28]

        /* Input capture event */
        if ((htim->Instance->CCMR1 & TIM_CCMR1_CC1S) != 0x00U)
 8001ff0:	687b      	ldr	r3, [r7, #4]
 8001ff2:	681b      	ldr	r3, [r3, #0]
 8001ff4:	699b      	ldr	r3, [r3, #24]
 8001ff6:	f003 0303 	and.w	r3, r3, #3
 8001ffa:	2b00      	cmp	r3, #0
 8001ffc:	d003      	beq.n	8002006 <HAL_TIM_IRQHandler+0x4a>
        {
#if (USE_HAL_TIM_REGISTER_CALLBACKS == 1)
          htim->IC_CaptureCallback(htim);
#else
          HAL_TIM_IC_CaptureCallback(htim);
 8001ffe:	6878      	ldr	r0, [r7, #4]
 8002000:	f000 f9f4 	bl	80023ec <HAL_TIM_IC_CaptureCallback>
 8002004:	e005      	b.n	8002012 <HAL_TIM_IRQHandler+0x56>
        {
#if (USE_HAL_TIM_REGISTER_CALLBACKS == 1)
          htim->OC_DelayElapsedCallback(htim);
          htim->PWM_PulseFinishedCallback(htim);
#else
          HAL_TIM_OC_DelayElapsedCallback(htim);
 8002006:	6878      	ldr	r0, [r7, #4]
 8002008:	f7fe fc1a 	bl	8000840 <HAL_TIM_OC_DelayElapsedCallback>
          HAL_TIM_PWM_PulseFinishedCallback(htim);
 800200c:	6878      	ldr	r0, [r7, #4]
 800200e:	f000 f9f7 	bl	8002400 <HAL_TIM_PWM_PulseFinishedCallback>
#endif /* USE_HAL_TIM_REGISTER_CALLBACKS */
        }
        htim->Channel = HAL_TIM_ACTIVE_CHANNEL_CLEARED;
 8002012:	687b      	ldr	r3, [r7, #4]
 8002014:	2200      	movs	r2, #0
 8002016:	771a      	strb	r2, [r3, #28]
      }
    }
  }
  /* Capture compare 2 event */
  if (__HAL_TIM_GET_FLAG(htim, TIM_FLAG_CC2) != RESET)
 8002018:	687b      	ldr	r3, [r7, #4]
 800201a:	681b      	ldr	r3, [r3, #0]
 800201c:	691b      	ldr	r3, [r3, #16]
 800201e:	f003 0304 	and.w	r3, r3, #4
 8002022:	2b04      	cmp	r3, #4
 8002024:	d122      	bne.n	800206c <HAL_TIM_IRQHandler+0xb0>
  {
    if (__HAL_TIM_GET_IT_SOURCE(htim, TIM_IT_CC2) != RESET)
 8002026:	687b      	ldr	r3, [r7, #4]
 8002028:	681b      	ldr	r3, [r3, #0]
 800202a:	68db      	ldr	r3, [r3, #12]
 800202c:	f003 0304 	and.w	r3, r3, #4
 8002030:	2b04      	cmp	r3, #4
 8002032:	d11b      	bne.n	800206c <HAL_TIM_IRQHandler+0xb0>
    {
      __HAL_TIM_CLEAR_IT(htim, TIM_IT_CC2);
 8002034:	687b      	ldr	r3, [r7, #4]
 8002036:	681b      	ldr	r3, [r3, #0]
 8002038:	f06f 0204 	mvn.w	r2, #4
 800203c:	611a      	str	r2, [r3, #16]
      htim->Channel = HAL_TIM_ACTIVE_CHANNEL_2;
 800203e:	687b      	ldr	r3, [r7, #4]
 8002040:	2202      	movs	r2, #2
 8002042:	771a      	strb	r2, [r3, #28]
      /* Input capture event */
      if ((htim->Instance->CCMR1 & TIM_CCMR1_CC2S) != 0x00U)
 8002044:	687b      	ldr	r3, [r7, #4]
 8002046:	681b      	ldr	r3, [r3, #0]
 8002048:	699b      	ldr	r3, [r3, #24]
 800204a:	f403 7340 	and.w	r3, r3, #768	; 0x300
 800204e:	2b00      	cmp	r3, #0
 8002050:	d003      	beq.n	800205a <HAL_TIM_IRQHandler+0x9e>
      {
#if (USE_HAL_TIM_REGISTER_CALLBACKS == 1)
        htim->IC_CaptureCallback(htim);
#else
        HAL_TIM_IC_CaptureCallback(htim);
 8002052:	6878      	ldr	r0, [r7, #4]
 8002054:	f000 f9ca 	bl	80023ec <HAL_TIM_IC_CaptureCallback>
 8002058:	e005      	b.n	8002066 <HAL_TIM_IRQHandler+0xaa>
      {
#if (USE_HAL_TIM_REGISTER_CALLBACKS == 1)
        htim->OC_DelayElapsedCallback(htim);
        htim->PWM_PulseFinishedCallback(htim);
#else
        HAL_TIM_OC_DelayElapsedCallback(htim);
 800205a:	6878      	ldr	r0, [r7, #4]
 800205c:	f7fe fbf0 	bl	8000840 <HAL_TIM_OC_DelayElapsedCallback>
        HAL_TIM_PWM_PulseFinishedCallback(htim);
 8002060:	6878      	ldr	r0, [r7, #4]
 8002062:	f000 f9cd 	bl	8002400 <HAL_TIM_PWM_PulseFinishedCallback>
#endif /* USE_HAL_TIM_REGISTER_CALLBACKS */
      }
      htim->Channel = HAL_TIM_ACTIVE_CHANNEL_CLEARED;
 8002066:	687b      	ldr	r3, [r7, #4]
 8002068:	2200      	movs	r2, #0
 800206a:	771a      	strb	r2, [r3, #28]
    }
  }
  /* Capture compare 3 event */
  if (__HAL_TIM_GET_FLAG(htim, TIM_FLAG_CC3) != RESET)
 800206c:	687b      	ldr	r3, [r7, #4]
 800206e:	681b      	ldr	r3, [r3, #0]
 8002070:	691b      	ldr	r3, [r3, #16]
 8002072:	f003 0308 	and.w	r3, r3, #8
 8002076:	2b08      	cmp	r3, #8
 8002078:	d122      	bne.n	80020c0 <HAL_TIM_IRQHandler+0x104>
  {
    if (__HAL_TIM_GET_IT_SOURCE(htim, TIM_IT_CC3) != RESET)
 800207a:	687b      	ldr	r3, [r7, #4]
 800207c:	681b      	ldr	r3, [r3, #0]
 800207e:	68db      	ldr	r3, [r3, #12]
 8002080:	f003 0308 	and.w	r3, r3, #8
 8002084:	2b08      	cmp	r3, #8
 8002086:	d11b      	bne.n	80020c0 <HAL_TIM_IRQHandler+0x104>
    {
      __HAL_TIM_CLEAR_IT(htim, TIM_IT_CC3);
 8002088:	687b      	ldr	r3, [r7, #4]
 800208a:	681b      	ldr	r3, [r3, #0]
 800208c:	f06f 0208 	mvn.w	r2, #8
 8002090:	611a      	str	r2, [r3, #16]
      htim->Channel = HAL_TIM_ACTIVE_CHANNEL_3;
 8002092:	687b      	ldr	r3, [r7, #4]
 8002094:	2204      	movs	r2, #4
 8002096:	771a      	strb	r2, [r3, #28]
      /* Input capture event */
      if ((htim->Instance->CCMR2 & TIM_CCMR2_CC3S) != 0x00U)
 8002098:	687b      	ldr	r3, [r7, #4]
 800209a:	681b      	ldr	r3, [r3, #0]
 800209c:	69db      	ldr	r3, [r3, #28]
 800209e:	f003 0303 	and.w	r3, r3, #3
 80020a2:	2b00      	cmp	r3, #0
 80020a4:	d003      	beq.n	80020ae <HAL_TIM_IRQHandler+0xf2>
      {
#if (USE_HAL_TIM_REGISTER_CALLBACKS == 1)
        htim->IC_CaptureCallback(htim);
#else
        HAL_TIM_IC_CaptureCallback(htim);
 80020a6:	6878      	ldr	r0, [r7, #4]
 80020a8:	f000 f9a0 	bl	80023ec <HAL_TIM_IC_CaptureCallback>
 80020ac:	e005      	b.n	80020ba <HAL_TIM_IRQHandler+0xfe>
      {
#if (USE_HAL_TIM_REGISTER_CALLBACKS == 1)
        htim->OC_DelayElapsedCallback(htim);
        htim->PWM_PulseFinishedCallback(htim);
#else
        HAL_TIM_OC_DelayElapsedCallback(htim);
 80020ae:	6878      	ldr	r0, [r7, #4]
 80020b0:	f7fe fbc6 	bl	8000840 <HAL_TIM_OC_DelayElapsedCallback>
        HAL_TIM_PWM_PulseFinishedCallback(htim);
 80020b4:	6878      	ldr	r0, [r7, #4]
 80020b6:	f000 f9a3 	bl	8002400 <HAL_TIM_PWM_PulseFinishedCallback>
#endif /* USE_HAL_TIM_REGISTER_CALLBACKS */
      }
      htim->Channel = HAL_TIM_ACTIVE_CHANNEL_CLEARED;
 80020ba:	687b      	ldr	r3, [r7, #4]
 80020bc:	2200      	movs	r2, #0
 80020be:	771a      	strb	r2, [r3, #28]
    }
  }
  /* Capture compare 4 event */
  if (__HAL_TIM_GET_FLAG(htim, TIM_FLAG_CC4) != RESET)
 80020c0:	687b      	ldr	r3, [r7, #4]
 80020c2:	681b      	ldr	r3, [r3, #0]
 80020c4:	691b      	ldr	r3, [r3, #16]
 80020c6:	f003 0310 	and.w	r3, r3, #16
 80020ca:	2b10      	cmp	r3, #16
 80020cc:	d122      	bne.n	8002114 <HAL_TIM_IRQHandler+0x158>
  {
    if (__HAL_TIM_GET_IT_SOURCE(htim, TIM_IT_CC4) != RESET)
 80020ce:	687b      	ldr	r3, [r7, #4]
 80020d0:	681b      	ldr	r3, [r3, #0]
 80020d2:	68db      	ldr	r3, [r3, #12]
 80020d4:	f003 0310 	and.w	r3, r3, #16
 80020d8:	2b10      	cmp	r3, #16
 80020da:	d11b      	bne.n	8002114 <HAL_TIM_IRQHandler+0x158>
    {
      __HAL_TIM_CLEAR_IT(htim, TIM_IT_CC4);
 80020dc:	687b      	ldr	r3, [r7, #4]
 80020de:	681b      	ldr	r3, [r3, #0]
 80020e0:	f06f 0210 	mvn.w	r2, #16
 80020e4:	611a      	str	r2, [r3, #16]
      htim->Channel = HAL_TIM_ACTIVE_CHANNEL_4;
 80020e6:	687b      	ldr	r3, [r7, #4]
 80020e8:	2208      	movs	r2, #8
 80020ea:	771a      	strb	r2, [r3, #28]
      /* Input capture event */
      if ((htim->Instance->CCMR2 & TIM_CCMR2_CC4S) != 0x00U)
 80020ec:	687b      	ldr	r3, [r7, #4]
 80020ee:	681b      	ldr	r3, [r3, #0]
 80020f0:	69db      	ldr	r3, [r3, #28]
 80020f2:	f403 7340 	and.w	r3, r3, #768	; 0x300
 80020f6:	2b00      	cmp	r3, #0
 80020f8:	d003      	beq.n	8002102 <HAL_TIM_IRQHandler+0x146>
      {
#if (USE_HAL_TIM_REGISTER_CALLBACKS == 1)
        htim->IC_CaptureCallback(htim);
#else
        HAL_TIM_IC_CaptureCallback(htim);
 80020fa:	6878      	ldr	r0, [r7, #4]
 80020fc:	f000 f976 	bl	80023ec <HAL_TIM_IC_CaptureCallback>
 8002100:	e005      	b.n	800210e <HAL_TIM_IRQHandler+0x152>
      {
#if (USE_HAL_TIM_REGISTER_CALLBACKS == 1)
        htim->OC_DelayElapsedCallback(htim);
        htim->PWM_PulseFinishedCallback(htim);
#else
        HAL_TIM_OC_DelayElapsedCallback(htim);
 8002102:	6878      	ldr	r0, [r7, #4]
 8002104:	f7fe fb9c 	bl	8000840 <HAL_TIM_OC_DelayElapsedCallback>
        HAL_TIM_PWM_PulseFinishedCallback(htim);
 8002108:	6878      	ldr	r0, [r7, #4]
 800210a:	f000 f979 	bl	8002400 <HAL_TIM_PWM_PulseFinishedCallback>
#endif /* USE_HAL_TIM_REGISTER_CALLBACKS */
      }
      htim->Channel = HAL_TIM_ACTIVE_CHANNEL_CLEARED;
 800210e:	687b      	ldr	r3, [r7, #4]
 8002110:	2200      	movs	r2, #0
 8002112:	771a      	strb	r2, [r3, #28]
    }
  }
  /* TIM Update event */
  if (__HAL_TIM_GET_FLAG(htim, TIM_FLAG_UPDATE) != RESET)
 8002114:	687b      	ldr	r3, [r7, #4]
 8002116:	681b      	ldr	r3, [r3, #0]
 8002118:	691b      	ldr	r3, [r3, #16]
 800211a:	f003 0301 	and.w	r3, r3, #1
 800211e:	2b01      	cmp	r3, #1
 8002120:	d10e      	bne.n	8002140 <HAL_TIM_IRQHandler+0x184>
  {
    if (__HAL_TIM_GET_IT_SOURCE(htim, TIM_IT_UPDATE) != RESET)
 8002122:	687b      	ldr	r3, [r7, #4]
 8002124:	681b      	ldr	r3, [r3, #0]
 8002126:	68db      	ldr	r3, [r3, #12]
 8002128:	f003 0301 	and.w	r3, r3, #1
 800212c:	2b01      	cmp	r3, #1
 800212e:	d107      	bne.n	8002140 <HAL_TIM_IRQHandler+0x184>
    {
      __HAL_TIM_CLEAR_IT(htim, TIM_IT_UPDATE);
 8002130:	687b      	ldr	r3, [r7, #4]
 8002132:	681b      	ldr	r3, [r3, #0]
 8002134:	f06f 0201 	mvn.w	r2, #1
 8002138:	611a      	str	r2, [r3, #16]
#if (USE_HAL_TIM_REGISTER_CALLBACKS == 1)
      htim->PeriodElapsedCallback(htim);
#else
      HAL_TIM_PeriodElapsedCallback(htim);
 800213a:	6878      	ldr	r0, [r7, #4]
 800213c:	f000 f94c 	bl	80023d8 <HAL_TIM_PeriodElapsedCallback>
#endif /* USE_HAL_TIM_REGISTER_CALLBACKS */
    }
  }
  /* TIM Break input event */
  if (__HAL_TIM_GET_FLAG(htim, TIM_FLAG_BREAK) != RESET)
 8002140:	687b      	ldr	r3, [r7, #4]
 8002142:	681b      	ldr	r3, [r3, #0]
 8002144:	691b      	ldr	r3, [r3, #16]
 8002146:	f003 0380 	and.w	r3, r3, #128	; 0x80
 800214a:	2b80      	cmp	r3, #128	; 0x80
 800214c:	d10e      	bne.n	800216c <HAL_TIM_IRQHandler+0x1b0>
  {
    if (__HAL_TIM_GET_IT_SOURCE(htim, TIM_IT_BREAK) != RESET)
 800214e:	687b      	ldr	r3, [r7, #4]
 8002150:	681b      	ldr	r3, [r3, #0]
 8002152:	68db      	ldr	r3, [r3, #12]
 8002154:	f003 0380 	and.w	r3, r3, #128	; 0x80
 8002158:	2b80      	cmp	r3, #128	; 0x80
 800215a:	d107      	bne.n	800216c <HAL_TIM_IRQHandler+0x1b0>
    {
      __HAL_TIM_CLEAR_IT(htim, TIM_IT_BREAK);
 800215c:	687b      	ldr	r3, [r7, #4]
 800215e:	681b      	ldr	r3, [r3, #0]
 8002160:	f06f 0280 	mvn.w	r2, #128	; 0x80
 8002164:	611a      	str	r2, [r3, #16]
#if (USE_HAL_TIM_REGISTER_CALLBACKS == 1)
      htim->BreakCallback(htim);
#else
      HAL_TIMEx_BreakCallback(htim);
 8002166:	6878      	ldr	r0, [r7, #4]
 8002168:	f000 fbdd 	bl	8002926 <HAL_TIMEx_BreakCallback>
#endif /* USE_HAL_TIM_REGISTER_CALLBACKS */
    }
  }
  /* TIM Trigger detection event */
  if (__HAL_TIM_GET_FLAG(htim, TIM_FLAG_TRIGGER) != RESET)
 800216c:	687b      	ldr	r3, [r7, #4]
 800216e:	681b      	ldr	r3, [r3, #0]
 8002170:	691b      	ldr	r3, [r3, #16]
 8002172:	f003 0340 	and.w	r3, r3, #64	; 0x40
 8002176:	2b40      	cmp	r3, #64	; 0x40
 8002178:	d10e      	bne.n	8002198 <HAL_TIM_IRQHandler+0x1dc>
  {
    if (__HAL_TIM_GET_IT_SOURCE(htim, TIM_IT_TRIGGER) != RESET)
 800217a:	687b      	ldr	r3, [r7, #4]
 800217c:	681b      	ldr	r3, [r3, #0]
 800217e:	68db      	ldr	r3, [r3, #12]
 8002180:	f003 0340 	and.w	r3, r3, #64	; 0x40
 8002184:	2b40      	cmp	r3, #64	; 0x40
 8002186:	d107      	bne.n	8002198 <HAL_TIM_IRQHandler+0x1dc>
    {
      __HAL_TIM_CLEAR_IT(htim, TIM_IT_TRIGGER);
 8002188:	687b      	ldr	r3, [r7, #4]
 800218a:	681b      	ldr	r3, [r3, #0]
 800218c:	f06f 0240 	mvn.w	r2, #64	; 0x40
 8002190:	611a      	str	r2, [r3, #16]
#if (USE_HAL_TIM_REGISTER_CALLBACKS == 1)
      htim->TriggerCallback(htim);
#else
      HAL_TIM_TriggerCallback(htim);
 8002192:	6878      	ldr	r0, [r7, #4]
 8002194:	f000 f93e 	bl	8002414 <HAL_TIM_TriggerCallback>
#endif /* USE_HAL_TIM_REGISTER_CALLBACKS */
    }
  }
  /* TIM commutation event */
  if (__HAL_TIM_GET_FLAG(htim, TIM_FLAG_COM) != RESET)
 8002198:	687b      	ldr	r3, [r7, #4]
 800219a:	681b      	ldr	r3, [r3, #0]
 800219c:	691b      	ldr	r3, [r3, #16]
 800219e:	f003 0320 	and.w	r3, r3, #32
 80021a2:	2b20      	cmp	r3, #32
 80021a4:	d10e      	bne.n	80021c4 <HAL_TIM_IRQHandler+0x208>
  {
    if (__HAL_TIM_GET_IT_SOURCE(htim, TIM_IT_COM) != RESET)
 80021a6:	687b      	ldr	r3, [r7, #4]
 80021a8:	681b      	ldr	r3, [r3, #0]
 80021aa:	68db      	ldr	r3, [r3, #12]
 80021ac:	f003 0320 	and.w	r3, r3, #32
 80021b0:	2b20      	cmp	r3, #32
 80021b2:	d107      	bne.n	80021c4 <HAL_TIM_IRQHandler+0x208>
    {
      __HAL_TIM_CLEAR_IT(htim, TIM_FLAG_COM);
 80021b4:	687b      	ldr	r3, [r7, #4]
 80021b6:	681b      	ldr	r3, [r3, #0]
 80021b8:	f06f 0220 	mvn.w	r2, #32
 80021bc:	611a      	str	r2, [r3, #16]
#if (USE_HAL_TIM_REGISTER_CALLBACKS == 1)
      htim->CommutationCallback(htim);
#else
      HAL_TIMEx_CommutCallback(htim);
 80021be:	6878      	ldr	r0, [r7, #4]
 80021c0:	f000 fba7 	bl	8002912 <HAL_TIMEx_CommutCallback>
#endif /* USE_HAL_TIM_REGISTER_CALLBACKS */
    }
  }
}
 80021c4:	bf00      	nop
 80021c6:	3708      	adds	r7, #8
 80021c8:	46bd      	mov	sp, r7
 80021ca:	bd80      	pop	{r7, pc}

080021cc <HAL_TIM_PWM_ConfigChannel>:
  * @retval HAL status
  */
HAL_StatusTypeDef HAL_TIM_PWM_ConfigChannel(TIM_HandleTypeDef *htim,
                                            TIM_OC_InitTypeDef *sConfig,
                                            uint32_t Channel)
{
 80021cc:	b580      	push	{r7, lr}
 80021ce:	b086      	sub	sp, #24
 80021d0:	af00      	add	r7, sp, #0
 80021d2:	60f8      	str	r0, [r7, #12]
 80021d4:	60b9      	str	r1, [r7, #8]
 80021d6:	607a      	str	r2, [r7, #4]
  HAL_StatusTypeDef status = HAL_OK;
 80021d8:	2300      	movs	r3, #0
 80021da:	75fb      	strb	r3, [r7, #23]
  assert_param(IS_TIM_PWM_MODE(sConfig->OCMode));
  assert_param(IS_TIM_OC_POLARITY(sConfig->OCPolarity));
  assert_param(IS_TIM_FAST_STATE(sConfig->OCFastMode));

  /* Process Locked */
  __HAL_LOCK(htim);
 80021dc:	68fb      	ldr	r3, [r7, #12]
 80021de:	f893 303c 	ldrb.w	r3, [r3, #60]	; 0x3c
 80021e2:	2b01      	cmp	r3, #1
 80021e4:	d101      	bne.n	80021ea <HAL_TIM_PWM_ConfigChannel+0x1e>
 80021e6:	2302      	movs	r3, #2
 80021e8:	e0ae      	b.n	8002348 <HAL_TIM_PWM_ConfigChannel+0x17c>
 80021ea:	68fb      	ldr	r3, [r7, #12]
 80021ec:	2201      	movs	r2, #1
 80021ee:	f883 203c 	strb.w	r2, [r3, #60]	; 0x3c

  switch (Channel)
 80021f2:	687b      	ldr	r3, [r7, #4]
 80021f4:	2b0c      	cmp	r3, #12
 80021f6:	f200 809f 	bhi.w	8002338 <HAL_TIM_PWM_ConfigChannel+0x16c>
 80021fa:	a201      	add	r2, pc, #4	; (adr r2, 8002200 <HAL_TIM_PWM_ConfigChannel+0x34>)
 80021fc:	f852 f023 	ldr.w	pc, [r2, r3, lsl #2]
 8002200:	08002235 	.word	0x08002235
 8002204:	08002339 	.word	0x08002339
 8002208:	08002339 	.word	0x08002339
 800220c:	08002339 	.word	0x08002339
 8002210:	08002275 	.word	0x08002275
 8002214:	08002339 	.word	0x08002339
 8002218:	08002339 	.word	0x08002339
 800221c:	08002339 	.word	0x08002339
 8002220:	080022b7 	.word	0x080022b7
 8002224:	08002339 	.word	0x08002339
 8002228:	08002339 	.word	0x08002339
 800222c:	08002339 	.word	0x08002339
 8002230:	080022f7 	.word	0x080022f7
    {
      /* Check the parameters */
      assert_param(IS_TIM_CC1_INSTANCE(htim->Instance));

      /* Configure the Channel 1 in PWM mode */
      TIM_OC1_SetConfig(htim->Instance, sConfig);
 8002234:	68fb      	ldr	r3, [r7, #12]
 8002236:	681b      	ldr	r3, [r3, #0]
 8002238:	68b9      	ldr	r1, [r7, #8]
 800223a:	4618      	mov	r0, r3
 800223c:	f000 f994 	bl	8002568 <TIM_OC1_SetConfig>

      /* Set the Preload enable bit for channel1 */
      htim->Instance->CCMR1 |= TIM_CCMR1_OC1PE;
 8002240:	68fb      	ldr	r3, [r7, #12]
 8002242:	681b      	ldr	r3, [r3, #0]
 8002244:	699a      	ldr	r2, [r3, #24]
 8002246:	68fb      	ldr	r3, [r7, #12]
 8002248:	681b      	ldr	r3, [r3, #0]
 800224a:	f042 0208 	orr.w	r2, r2, #8
 800224e:	619a      	str	r2, [r3, #24]

      /* Configure the Output Fast mode */
      htim->Instance->CCMR1 &= ~TIM_CCMR1_OC1FE;
 8002250:	68fb      	ldr	r3, [r7, #12]
 8002252:	681b      	ldr	r3, [r3, #0]
 8002254:	699a      	ldr	r2, [r3, #24]
 8002256:	68fb      	ldr	r3, [r7, #12]
 8002258:	681b      	ldr	r3, [r3, #0]
 800225a:	f022 0204 	bic.w	r2, r2, #4
 800225e:	619a      	str	r2, [r3, #24]
      htim->Instance->CCMR1 |= sConfig->OCFastMode;
 8002260:	68fb      	ldr	r3, [r7, #12]
 8002262:	681b      	ldr	r3, [r3, #0]
 8002264:	6999      	ldr	r1, [r3, #24]
 8002266:	68bb      	ldr	r3, [r7, #8]
 8002268:	691a      	ldr	r2, [r3, #16]
 800226a:	68fb      	ldr	r3, [r7, #12]
 800226c:	681b      	ldr	r3, [r3, #0]
 800226e:	430a      	orrs	r2, r1
 8002270:	619a      	str	r2, [r3, #24]
      break;
 8002272:	e064      	b.n	800233e <HAL_TIM_PWM_ConfigChannel+0x172>
    {
      /* Check the parameters */
      assert_param(IS_TIM_CC2_INSTANCE(htim->Instance));

      /* Configure the Channel 2 in PWM mode */
      TIM_OC2_SetConfig(htim->Instance, sConfig);
 8002274:	68fb      	ldr	r3, [r7, #12]
 8002276:	681b      	ldr	r3, [r3, #0]
 8002278:	68b9      	ldr	r1, [r7, #8]
 800227a:	4618      	mov	r0, r3
 800227c:	f000 f9e4 	bl	8002648 <TIM_OC2_SetConfig>

      /* Set the Preload enable bit for channel2 */
      htim->Instance->CCMR1 |= TIM_CCMR1_OC2PE;
 8002280:	68fb      	ldr	r3, [r7, #12]
 8002282:	681b      	ldr	r3, [r3, #0]
 8002284:	699a      	ldr	r2, [r3, #24]
 8002286:	68fb      	ldr	r3, [r7, #12]
 8002288:	681b      	ldr	r3, [r3, #0]
 800228a:	f442 6200 	orr.w	r2, r2, #2048	; 0x800
 800228e:	619a      	str	r2, [r3, #24]

      /* Configure the Output Fast mode */
      htim->Instance->CCMR1 &= ~TIM_CCMR1_OC2FE;
 8002290:	68fb      	ldr	r3, [r7, #12]
 8002292:	681b      	ldr	r3, [r3, #0]
 8002294:	699a      	ldr	r2, [r3, #24]
 8002296:	68fb      	ldr	r3, [r7, #12]
 8002298:	681b      	ldr	r3, [r3, #0]
 800229a:	f422 6280 	bic.w	r2, r2, #1024	; 0x400
 800229e:	619a      	str	r2, [r3, #24]
      htim->Instance->CCMR1 |= sConfig->OCFastMode << 8U;
 80022a0:	68fb      	ldr	r3, [r7, #12]
 80022a2:	681b      	ldr	r3, [r3, #0]
 80022a4:	6999      	ldr	r1, [r3, #24]
 80022a6:	68bb      	ldr	r3, [r7, #8]
 80022a8:	691b      	ldr	r3, [r3, #16]
 80022aa:	021a      	lsls	r2, r3, #8
 80022ac:	68fb      	ldr	r3, [r7, #12]
 80022ae:	681b      	ldr	r3, [r3, #0]
 80022b0:	430a      	orrs	r2, r1
 80022b2:	619a      	str	r2, [r3, #24]
      break;
 80022b4:	e043      	b.n	800233e <HAL_TIM_PWM_ConfigChannel+0x172>
    {
      /* Check the parameters */
      assert_param(IS_TIM_CC3_INSTANCE(htim->Instance));

      /* Configure the Channel 3 in PWM mode */
      TIM_OC3_SetConfig(htim->Instance, sConfig);
 80022b6:	68fb      	ldr	r3, [r7, #12]
 80022b8:	681b      	ldr	r3, [r3, #0]
 80022ba:	68b9      	ldr	r1, [r7, #8]
 80022bc:	4618      	mov	r0, r3
 80022be:	f000 fa39 	bl	8002734 <TIM_OC3_SetConfig>

      /* Set the Preload enable bit for channel3 */
      htim->Instance->CCMR2 |= TIM_CCMR2_OC3PE;
 80022c2:	68fb      	ldr	r3, [r7, #12]
 80022c4:	681b      	ldr	r3, [r3, #0]
 80022c6:	69da      	ldr	r2, [r3, #28]
 80022c8:	68fb      	ldr	r3, [r7, #12]
 80022ca:	681b      	ldr	r3, [r3, #0]
 80022cc:	f042 0208 	orr.w	r2, r2, #8
 80022d0:	61da      	str	r2, [r3, #28]

      /* Configure the Output Fast mode */
      htim->Instance->CCMR2 &= ~TIM_CCMR2_OC3FE;
 80022d2:	68fb      	ldr	r3, [r7, #12]
 80022d4:	681b      	ldr	r3, [r3, #0]
 80022d6:	69da      	ldr	r2, [r3, #28]
 80022d8:	68fb      	ldr	r3, [r7, #12]
 80022da:	681b      	ldr	r3, [r3, #0]
 80022dc:	f022 0204 	bic.w	r2, r2, #4
 80022e0:	61da      	str	r2, [r3, #28]
      htim->Instance->CCMR2 |= sConfig->OCFastMode;
 80022e2:	68fb      	ldr	r3, [r7, #12]
 80022e4:	681b      	ldr	r3, [r3, #0]
 80022e6:	69d9      	ldr	r1, [r3, #28]
 80022e8:	68bb      	ldr	r3, [r7, #8]
 80022ea:	691a      	ldr	r2, [r3, #16]
 80022ec:	68fb      	ldr	r3, [r7, #12]
 80022ee:	681b      	ldr	r3, [r3, #0]
 80022f0:	430a      	orrs	r2, r1
 80022f2:	61da      	str	r2, [r3, #28]
      break;
 80022f4:	e023      	b.n	800233e <HAL_TIM_PWM_ConfigChannel+0x172>
    {
      /* Check the parameters */
      assert_param(IS_TIM_CC4_INSTANCE(htim->Instance));

      /* Configure the Channel 4 in PWM mode */
      TIM_OC4_SetConfig(htim->Instance, sConfig);
 80022f6:	68fb      	ldr	r3, [r7, #12]
 80022f8:	681b      	ldr	r3, [r3, #0]
 80022fa:	68b9      	ldr	r1, [r7, #8]
 80022fc:	4618      	mov	r0, r3
 80022fe:	f000 fa8d 	bl	800281c <TIM_OC4_SetConfig>

      /* Set the Preload enable bit for channel4 */
      htim->Instance->CCMR2 |= TIM_CCMR2_OC4PE;
 8002302:	68fb      	ldr	r3, [r7, #12]
 8002304:	681b      	ldr	r3, [r3, #0]
 8002306:	69da      	ldr	r2, [r3, #28]
 8002308:	68fb      	ldr	r3, [r7, #12]
 800230a:	681b      	ldr	r3, [r3, #0]
 800230c:	f442 6200 	orr.w	r2, r2, #2048	; 0x800
 8002310:	61da      	str	r2, [r3, #28]

      /* Configure the Output Fast mode */
      htim->Instance->CCMR2 &= ~TIM_CCMR2_OC4FE;
 8002312:	68fb      	ldr	r3, [r7, #12]
 8002314:	681b      	ldr	r3, [r3, #0]
 8002316:	69da      	ldr	r2, [r3, #28]
 8002318:	68fb      	ldr	r3, [r7, #12]
 800231a:	681b      	ldr	r3, [r3, #0]
 800231c:	f422 6280 	bic.w	r2, r2, #1024	; 0x400
 8002320:	61da      	str	r2, [r3, #28]
      htim->Instance->CCMR2 |= sConfig->OCFastMode << 8U;
 8002322:	68fb      	ldr	r3, [r7, #12]
 8002324:	681b      	ldr	r3, [r3, #0]
 8002326:	69d9      	ldr	r1, [r3, #28]
 8002328:	68bb      	ldr	r3, [r7, #8]
 800232a:	691b      	ldr	r3, [r3, #16]
 800232c:	021a      	lsls	r2, r3, #8
 800232e:	68fb      	ldr	r3, [r7, #12]
 8002330:	681b      	ldr	r3, [r3, #0]
 8002332:	430a      	orrs	r2, r1
 8002334:	61da      	str	r2, [r3, #28]
      break;
 8002336:	e002      	b.n	800233e <HAL_TIM_PWM_ConfigChannel+0x172>
    }

    default:
      status = HAL_ERROR;
 8002338:	2301      	movs	r3, #1
 800233a:	75fb      	strb	r3, [r7, #23]
      break;
 800233c:	bf00      	nop
  }

  __HAL_UNLOCK(htim);
 800233e:	68fb      	ldr	r3, [r7, #12]
 8002340:	2200      	movs	r2, #0
 8002342:	f883 203c 	strb.w	r2, [r3, #60]	; 0x3c

  return status;
 8002346:	7dfb      	ldrb	r3, [r7, #23]
}
 8002348:	4618      	mov	r0, r3
 800234a:	3718      	adds	r7, #24
 800234c:	46bd      	mov	sp, r7
 800234e:	bd80      	pop	{r7, pc}

08002350 <HAL_TIM_ReadCapturedValue>:
  *            @arg TIM_CHANNEL_3: TIM Channel 3 selected
  *            @arg TIM_CHANNEL_4: TIM Channel 4 selected
  * @retval Captured value
  */
uint32_t HAL_TIM_ReadCapturedValue(TIM_HandleTypeDef *htim, uint32_t Channel)
{
 8002350:	b480      	push	{r7}
 8002352:	b085      	sub	sp, #20
 8002354:	af00      	add	r7, sp, #0
 8002356:	6078      	str	r0, [r7, #4]
 8002358:	6039      	str	r1, [r7, #0]
  uint32_t tmpreg = 0U;
 800235a:	2300      	movs	r3, #0
 800235c:	60fb      	str	r3, [r7, #12]

  switch (Channel)
 800235e:	683b      	ldr	r3, [r7, #0]
 8002360:	2b0c      	cmp	r3, #12
 8002362:	d831      	bhi.n	80023c8 <HAL_TIM_ReadCapturedValue+0x78>
 8002364:	a201      	add	r2, pc, #4	; (adr r2, 800236c <HAL_TIM_ReadCapturedValue+0x1c>)
 8002366:	f852 f023 	ldr.w	pc, [r2, r3, lsl #2]
 800236a:	bf00      	nop
 800236c:	080023a1 	.word	0x080023a1
 8002370:	080023c9 	.word	0x080023c9
 8002374:	080023c9 	.word	0x080023c9
 8002378:	080023c9 	.word	0x080023c9
 800237c:	080023ab 	.word	0x080023ab
 8002380:	080023c9 	.word	0x080023c9
 8002384:	080023c9 	.word	0x080023c9
 8002388:	080023c9 	.word	0x080023c9
 800238c:	080023b5 	.word	0x080023b5
 8002390:	080023c9 	.word	0x080023c9
 8002394:	080023c9 	.word	0x080023c9
 8002398:	080023c9 	.word	0x080023c9
 800239c:	080023bf 	.word	0x080023bf
    {
      /* Check the parameters */
      assert_param(IS_TIM_CC1_INSTANCE(htim->Instance));

      /* Return the capture 1 value */
      tmpreg =  htim->Instance->CCR1;
 80023a0:	687b      	ldr	r3, [r7, #4]
 80023a2:	681b      	ldr	r3, [r3, #0]
 80023a4:	6b5b      	ldr	r3, [r3, #52]	; 0x34
 80023a6:	60fb      	str	r3, [r7, #12]

      break;
 80023a8:	e00f      	b.n	80023ca <HAL_TIM_ReadCapturedValue+0x7a>
    {
      /* Check the parameters */
      assert_param(IS_TIM_CC2_INSTANCE(htim->Instance));

      /* Return the capture 2 value */
      tmpreg =   htim->Instance->CCR2;
 80023aa:	687b      	ldr	r3, [r7, #4]
 80023ac:	681b      	ldr	r3, [r3, #0]
 80023ae:	6b9b      	ldr	r3, [r3, #56]	; 0x38
 80023b0:	60fb      	str	r3, [r7, #12]

      break;
 80023b2:	e00a      	b.n	80023ca <HAL_TIM_ReadCapturedValue+0x7a>
    {
      /* Check the parameters */
      assert_param(IS_TIM_CC3_INSTANCE(htim->Instance));

      /* Return the capture 3 value */
      tmpreg =   htim->Instance->CCR3;
 80023b4:	687b      	ldr	r3, [r7, #4]
 80023b6:	681b      	ldr	r3, [r3, #0]
 80023b8:	6bdb      	ldr	r3, [r3, #60]	; 0x3c
 80023ba:	60fb      	str	r3, [r7, #12]

      break;
 80023bc:	e005      	b.n	80023ca <HAL_TIM_ReadCapturedValue+0x7a>
    {
      /* Check the parameters */
      assert_param(IS_TIM_CC4_INSTANCE(htim->Instance));

      /* Return the capture 4 value */
      tmpreg =   htim->Instance->CCR4;
 80023be:	687b      	ldr	r3, [r7, #4]
 80023c0:	681b      	ldr	r3, [r3, #0]
 80023c2:	6c1b      	ldr	r3, [r3, #64]	; 0x40
 80023c4:	60fb      	str	r3, [r7, #12]

      break;
 80023c6:	e000      	b.n	80023ca <HAL_TIM_ReadCapturedValue+0x7a>
    }

    default:
      break;
 80023c8:	bf00      	nop
  }

  return tmpreg;
 80023ca:	68fb      	ldr	r3, [r7, #12]
}
 80023cc:	4618      	mov	r0, r3
 80023ce:	3714      	adds	r7, #20
 80023d0:	46bd      	mov	sp, r7
 80023d2:	f85d 7b04 	ldr.w	r7, [sp], #4
 80023d6:	4770      	bx	lr

080023d8 <HAL_TIM_PeriodElapsedCallback>:
  * @brief  Period elapsed callback in non-blocking mode
  * @param  htim TIM handle
  * @retval None
  */
__weak void HAL_TIM_PeriodElapsedCallback(TIM_HandleTypeDef *htim)
{
 80023d8:	b480      	push	{r7}
 80023da:	b083      	sub	sp, #12
 80023dc:	af00      	add	r7, sp, #0
 80023de:	6078      	str	r0, [r7, #4]
  UNUSED(htim);

  /* NOTE : This function should not be modified, when the callback is needed,
            the HAL_TIM_PeriodElapsedCallback could be implemented in the user file
   */
}
 80023e0:	bf00      	nop
 80023e2:	370c      	adds	r7, #12
 80023e4:	46bd      	mov	sp, r7
 80023e6:	f85d 7b04 	ldr.w	r7, [sp], #4
 80023ea:	4770      	bx	lr

080023ec <HAL_TIM_IC_CaptureCallback>:
  * @brief  Input Capture callback in non-blocking mode
  * @param  htim TIM IC handle
  * @retval None
  */
__weak void HAL_TIM_IC_CaptureCallback(TIM_HandleTypeDef *htim)
{
 80023ec:	b480      	push	{r7}
 80023ee:	b083      	sub	sp, #12
 80023f0:	af00      	add	r7, sp, #0
 80023f2:	6078      	str	r0, [r7, #4]
  UNUSED(htim);

  /* NOTE : This function should not be modified, when the callback is needed,
            the HAL_TIM_IC_CaptureCallback could be implemented in the user file
   */
}
 80023f4:	bf00      	nop
 80023f6:	370c      	adds	r7, #12
 80023f8:	46bd      	mov	sp, r7
 80023fa:	f85d 7b04 	ldr.w	r7, [sp], #4
 80023fe:	4770      	bx	lr

08002400 <HAL_TIM_PWM_PulseFinishedCallback>:
  * @brief  PWM Pulse finished callback in non-blocking mode
  * @param  htim TIM handle
  * @retval None
  */
__weak void HAL_TIM_PWM_PulseFinishedCallback(TIM_HandleTypeDef *htim)
{
 8002400:	b480      	push	{r7}
 8002402:	b083      	sub	sp, #12
 8002404:	af00      	add	r7, sp, #0
 8002406:	6078      	str	r0, [r7, #4]
  UNUSED(htim);

  /* NOTE : This function should not be modified, when the callback is needed,
            the HAL_TIM_PWM_PulseFinishedCallback could be implemented in the user file
   */
}
 8002408:	bf00      	nop
 800240a:	370c      	adds	r7, #12
 800240c:	46bd      	mov	sp, r7
 800240e:	f85d 7b04 	ldr.w	r7, [sp], #4
 8002412:	4770      	bx	lr

08002414 <HAL_TIM_TriggerCallback>:
  * @brief  Hall Trigger detection callback in non-blocking mode
  * @param  htim TIM handle
  * @retval None
  */
__weak void HAL_TIM_TriggerCallback(TIM_HandleTypeDef *htim)
{
 8002414:	b480      	push	{r7}
 8002416:	b083      	sub	sp, #12
 8002418:	af00      	add	r7, sp, #0
 800241a:	6078      	str	r0, [r7, #4]
  UNUSED(htim);

  /* NOTE : This function should not be modified, when the callback is needed,
            the HAL_TIM_TriggerCallback could be implemented in the user file
   */
}
 800241c:	bf00      	nop
 800241e:	370c      	adds	r7, #12
 8002420:	46bd      	mov	sp, r7
 8002422:	f85d 7b04 	ldr.w	r7, [sp], #4
 8002426:	4770      	bx	lr

08002428 <TIM_Base_SetConfig>:
  * @param  TIMx TIM peripheral
  * @param  Structure TIM Base configuration structure
  * @retval None
  */
void TIM_Base_SetConfig(TIM_TypeDef *TIMx, TIM_Base_InitTypeDef *Structure)
{
 8002428:	b480      	push	{r7}
 800242a:	b085      	sub	sp, #20
 800242c:	af00      	add	r7, sp, #0
 800242e:	6078      	str	r0, [r7, #4]
 8002430:	6039      	str	r1, [r7, #0]
  uint32_t tmpcr1;
  tmpcr1 = TIMx->CR1;
 8002432:	687b      	ldr	r3, [r7, #4]
 8002434:	681b      	ldr	r3, [r3, #0]
 8002436:	60fb      	str	r3, [r7, #12]

  /* Set TIM Time Base Unit parameters ---------------------------------------*/
  if (IS_TIM_COUNTER_MODE_SELECT_INSTANCE(TIMx))
 8002438:	687b      	ldr	r3, [r7, #4]
 800243a:	4a40      	ldr	r2, [pc, #256]	; (800253c <TIM_Base_SetConfig+0x114>)
 800243c:	4293      	cmp	r3, r2
 800243e:	d013      	beq.n	8002468 <TIM_Base_SetConfig+0x40>
 8002440:	687b      	ldr	r3, [r7, #4]
 8002442:	f1b3 4f80 	cmp.w	r3, #1073741824	; 0x40000000
 8002446:	d00f      	beq.n	8002468 <TIM_Base_SetConfig+0x40>
 8002448:	687b      	ldr	r3, [r7, #4]
 800244a:	4a3d      	ldr	r2, [pc, #244]	; (8002540 <TIM_Base_SetConfig+0x118>)
 800244c:	4293      	cmp	r3, r2
 800244e:	d00b      	beq.n	8002468 <TIM_Base_SetConfig+0x40>
 8002450:	687b      	ldr	r3, [r7, #4]
 8002452:	4a3c      	ldr	r2, [pc, #240]	; (8002544 <TIM_Base_SetConfig+0x11c>)
 8002454:	4293      	cmp	r3, r2
 8002456:	d007      	beq.n	8002468 <TIM_Base_SetConfig+0x40>
 8002458:	687b      	ldr	r3, [r7, #4]
 800245a:	4a3b      	ldr	r2, [pc, #236]	; (8002548 <TIM_Base_SetConfig+0x120>)
 800245c:	4293      	cmp	r3, r2
 800245e:	d003      	beq.n	8002468 <TIM_Base_SetConfig+0x40>
 8002460:	687b      	ldr	r3, [r7, #4]
 8002462:	4a3a      	ldr	r2, [pc, #232]	; (800254c <TIM_Base_SetConfig+0x124>)
 8002464:	4293      	cmp	r3, r2
 8002466:	d108      	bne.n	800247a <TIM_Base_SetConfig+0x52>
  {
    /* Select the Counter Mode */
    tmpcr1 &= ~(TIM_CR1_DIR | TIM_CR1_CMS);
 8002468:	68fb      	ldr	r3, [r7, #12]
 800246a:	f023 0370 	bic.w	r3, r3, #112	; 0x70
 800246e:	60fb      	str	r3, [r7, #12]
    tmpcr1 |= Structure->CounterMode;
 8002470:	683b      	ldr	r3, [r7, #0]
 8002472:	685b      	ldr	r3, [r3, #4]
 8002474:	68fa      	ldr	r2, [r7, #12]
 8002476:	4313      	orrs	r3, r2
 8002478:	60fb      	str	r3, [r7, #12]
  }

  if (IS_TIM_CLOCK_DIVISION_INSTANCE(TIMx))
 800247a:	687b      	ldr	r3, [r7, #4]
 800247c:	4a2f      	ldr	r2, [pc, #188]	; (800253c <TIM_Base_SetConfig+0x114>)
 800247e:	4293      	cmp	r3, r2
 8002480:	d02b      	beq.n	80024da <TIM_Base_SetConfig+0xb2>
 8002482:	687b      	ldr	r3, [r7, #4]
 8002484:	f1b3 4f80 	cmp.w	r3, #1073741824	; 0x40000000
 8002488:	d027      	beq.n	80024da <TIM_Base_SetConfig+0xb2>
 800248a:	687b      	ldr	r3, [r7, #4]
 800248c:	4a2c      	ldr	r2, [pc, #176]	; (8002540 <TIM_Base_SetConfig+0x118>)
 800248e:	4293      	cmp	r3, r2
 8002490:	d023      	beq.n	80024da <TIM_Base_SetConfig+0xb2>
 8002492:	687b      	ldr	r3, [r7, #4]
 8002494:	4a2b      	ldr	r2, [pc, #172]	; (8002544 <TIM_Base_SetConfig+0x11c>)
 8002496:	4293      	cmp	r3, r2
 8002498:	d01f      	beq.n	80024da <TIM_Base_SetConfig+0xb2>
 800249a:	687b      	ldr	r3, [r7, #4]
 800249c:	4a2a      	ldr	r2, [pc, #168]	; (8002548 <TIM_Base_SetConfig+0x120>)
 800249e:	4293      	cmp	r3, r2
 80024a0:	d01b      	beq.n	80024da <TIM_Base_SetConfig+0xb2>
 80024a2:	687b      	ldr	r3, [r7, #4]
 80024a4:	4a29      	ldr	r2, [pc, #164]	; (800254c <TIM_Base_SetConfig+0x124>)
 80024a6:	4293      	cmp	r3, r2
 80024a8:	d017      	beq.n	80024da <TIM_Base_SetConfig+0xb2>
 80024aa:	687b      	ldr	r3, [r7, #4]
 80024ac:	4a28      	ldr	r2, [pc, #160]	; (8002550 <TIM_Base_SetConfig+0x128>)
 80024ae:	4293      	cmp	r3, r2
 80024b0:	d013      	beq.n	80024da <TIM_Base_SetConfig+0xb2>
 80024b2:	687b      	ldr	r3, [r7, #4]
 80024b4:	4a27      	ldr	r2, [pc, #156]	; (8002554 <TIM_Base_SetConfig+0x12c>)
 80024b6:	4293      	cmp	r3, r2
 80024b8:	d00f      	beq.n	80024da <TIM_Base_SetConfig+0xb2>
 80024ba:	687b      	ldr	r3, [r7, #4]
 80024bc:	4a26      	ldr	r2, [pc, #152]	; (8002558 <TIM_Base_SetConfig+0x130>)
 80024be:	4293      	cmp	r3, r2
 80024c0:	d00b      	beq.n	80024da <TIM_Base_SetConfig+0xb2>
 80024c2:	687b      	ldr	r3, [r7, #4]
 80024c4:	4a25      	ldr	r2, [pc, #148]	; (800255c <TIM_Base_SetConfig+0x134>)
 80024c6:	4293      	cmp	r3, r2
 80024c8:	d007      	beq.n	80024da <TIM_Base_SetConfig+0xb2>
 80024ca:	687b      	ldr	r3, [r7, #4]
 80024cc:	4a24      	ldr	r2, [pc, #144]	; (8002560 <TIM_Base_SetConfig+0x138>)
 80024ce:	4293      	cmp	r3, r2
 80024d0:	d003      	beq.n	80024da <TIM_Base_SetConfig+0xb2>
 80024d2:	687b      	ldr	r3, [r7, #4]
 80024d4:	4a23      	ldr	r2, [pc, #140]	; (8002564 <TIM_Base_SetConfig+0x13c>)
 80024d6:	4293      	cmp	r3, r2
 80024d8:	d108      	bne.n	80024ec <TIM_Base_SetConfig+0xc4>
  {
    /* Set the clock division */
    tmpcr1 &= ~TIM_CR1_CKD;
 80024da:	68fb      	ldr	r3, [r7, #12]
 80024dc:	f423 7340 	bic.w	r3, r3, #768	; 0x300
 80024e0:	60fb      	str	r3, [r7, #12]
    tmpcr1 |= (uint32_t)Structure->ClockDivision;
 80024e2:	683b      	ldr	r3, [r7, #0]
 80024e4:	68db      	ldr	r3, [r3, #12]
 80024e6:	68fa      	ldr	r2, [r7, #12]
 80024e8:	4313      	orrs	r3, r2
 80024ea:	60fb      	str	r3, [r7, #12]
  }

  /* Set the auto-reload preload */
  MODIFY_REG(tmpcr1, TIM_CR1_ARPE, Structure->AutoReloadPreload);
 80024ec:	68fb      	ldr	r3, [r7, #12]
 80024ee:	f023 0280 	bic.w	r2, r3, #128	; 0x80
 80024f2:	683b      	ldr	r3, [r7, #0]
 80024f4:	695b      	ldr	r3, [r3, #20]
 80024f6:	4313      	orrs	r3, r2
 80024f8:	60fb      	str	r3, [r7, #12]

  TIMx->CR1 = tmpcr1;
 80024fa:	687b      	ldr	r3, [r7, #4]
 80024fc:	68fa      	ldr	r2, [r7, #12]
 80024fe:	601a      	str	r2, [r3, #0]

  /* Set the Autoreload value */
  TIMx->ARR = (uint32_t)Structure->Period ;
 8002500:	683b      	ldr	r3, [r7, #0]
 8002502:	689a      	ldr	r2, [r3, #8]
 8002504:	687b      	ldr	r3, [r7, #4]
 8002506:	62da      	str	r2, [r3, #44]	; 0x2c

  /* Set the Prescaler value */
  TIMx->PSC = Structure->Prescaler;
 8002508:	683b      	ldr	r3, [r7, #0]
 800250a:	681a      	ldr	r2, [r3, #0]
 800250c:	687b      	ldr	r3, [r7, #4]
 800250e:	629a      	str	r2, [r3, #40]	; 0x28

  if (IS_TIM_REPETITION_COUNTER_INSTANCE(TIMx))
 8002510:	687b      	ldr	r3, [r7, #4]
 8002512:	4a0a      	ldr	r2, [pc, #40]	; (800253c <TIM_Base_SetConfig+0x114>)
 8002514:	4293      	cmp	r3, r2
 8002516:	d003      	beq.n	8002520 <TIM_Base_SetConfig+0xf8>
 8002518:	687b      	ldr	r3, [r7, #4]
 800251a:	4a0c      	ldr	r2, [pc, #48]	; (800254c <TIM_Base_SetConfig+0x124>)
 800251c:	4293      	cmp	r3, r2
 800251e:	d103      	bne.n	8002528 <TIM_Base_SetConfig+0x100>
  {
    /* Set the Repetition Counter value */
    TIMx->RCR = Structure->RepetitionCounter;
 8002520:	683b      	ldr	r3, [r7, #0]
 8002522:	691a      	ldr	r2, [r3, #16]
 8002524:	687b      	ldr	r3, [r7, #4]
 8002526:	631a      	str	r2, [r3, #48]	; 0x30
  }

  /* Generate an update event to reload the Prescaler
     and the repetition counter (only for advanced timer) value immediately */
  TIMx->EGR = TIM_EGR_UG;
 8002528:	687b      	ldr	r3, [r7, #4]
 800252a:	2201      	movs	r2, #1
 800252c:	615a      	str	r2, [r3, #20]
}
 800252e:	bf00      	nop
 8002530:	3714      	adds	r7, #20
 8002532:	46bd      	mov	sp, r7
 8002534:	f85d 7b04 	ldr.w	r7, [sp], #4
 8002538:	4770      	bx	lr
 800253a:	bf00      	nop
 800253c:	40010000 	.word	0x40010000
 8002540:	40000400 	.word	0x40000400
 8002544:	40000800 	.word	0x40000800
 8002548:	40000c00 	.word	0x40000c00
 800254c:	40010400 	.word	0x40010400
 8002550:	40014000 	.word	0x40014000
 8002554:	40014400 	.word	0x40014400
 8002558:	40014800 	.word	0x40014800
 800255c:	40001800 	.word	0x40001800
 8002560:	40001c00 	.word	0x40001c00
 8002564:	40002000 	.word	0x40002000

08002568 <TIM_OC1_SetConfig>:
  * @param  TIMx to select the TIM peripheral
  * @param  OC_Config The output configuration structure
  * @retval None
  */
static void TIM_OC1_SetConfig(TIM_TypeDef *TIMx, TIM_OC_InitTypeDef *OC_Config)
{
 8002568:	b480      	push	{r7}
 800256a:	b087      	sub	sp, #28
 800256c:	af00      	add	r7, sp, #0
 800256e:	6078      	str	r0, [r7, #4]
 8002570:	6039      	str	r1, [r7, #0]
  uint32_t tmpccmrx;
  uint32_t tmpccer;
  uint32_t tmpcr2;

  /* Disable the Channel 1: Reset the CC1E Bit */
  TIMx->CCER &= ~TIM_CCER_CC1E;
 8002572:	687b      	ldr	r3, [r7, #4]
 8002574:	6a1b      	ldr	r3, [r3, #32]
 8002576:	f023 0201 	bic.w	r2, r3, #1
 800257a:	687b      	ldr	r3, [r7, #4]
 800257c:	621a      	str	r2, [r3, #32]

  /* Get the TIMx CCER register value */
  tmpccer = TIMx->CCER;
 800257e:	687b      	ldr	r3, [r7, #4]
 8002580:	6a1b      	ldr	r3, [r3, #32]
 8002582:	617b      	str	r3, [r7, #20]
  /* Get the TIMx CR2 register value */
  tmpcr2 =  TIMx->CR2;
 8002584:	687b      	ldr	r3, [r7, #4]
 8002586:	685b      	ldr	r3, [r3, #4]
 8002588:	613b      	str	r3, [r7, #16]

  /* Get the TIMx CCMR1 register value */
  tmpccmrx = TIMx->CCMR1;
 800258a:	687b      	ldr	r3, [r7, #4]
 800258c:	699b      	ldr	r3, [r3, #24]
 800258e:	60fb      	str	r3, [r7, #12]

  /* Reset the Output Compare Mode Bits */
  tmpccmrx &= ~TIM_CCMR1_OC1M;
 8002590:	68fb      	ldr	r3, [r7, #12]
 8002592:	f023 0370 	bic.w	r3, r3, #112	; 0x70
 8002596:	60fb      	str	r3, [r7, #12]
  tmpccmrx &= ~TIM_CCMR1_CC1S;
 8002598:	68fb      	ldr	r3, [r7, #12]
 800259a:	f023 0303 	bic.w	r3, r3, #3
 800259e:	60fb      	str	r3, [r7, #12]
  /* Select the Output Compare Mode */
  tmpccmrx |= OC_Config->OCMode;
 80025a0:	683b      	ldr	r3, [r7, #0]
 80025a2:	681b      	ldr	r3, [r3, #0]
 80025a4:	68fa      	ldr	r2, [r7, #12]
 80025a6:	4313      	orrs	r3, r2
 80025a8:	60fb      	str	r3, [r7, #12]

  /* Reset the Output Polarity level */
  tmpccer &= ~TIM_CCER_CC1P;
 80025aa:	697b      	ldr	r3, [r7, #20]
 80025ac:	f023 0302 	bic.w	r3, r3, #2
 80025b0:	617b      	str	r3, [r7, #20]
  /* Set the Output Compare Polarity */
  tmpccer |= OC_Config->OCPolarity;
 80025b2:	683b      	ldr	r3, [r7, #0]
 80025b4:	689b      	ldr	r3, [r3, #8]
 80025b6:	697a      	ldr	r2, [r7, #20]
 80025b8:	4313      	orrs	r3, r2
 80025ba:	617b      	str	r3, [r7, #20]

  if (IS_TIM_CCXN_INSTANCE(TIMx, TIM_CHANNEL_1))
 80025bc:	687b      	ldr	r3, [r7, #4]
 80025be:	4a20      	ldr	r2, [pc, #128]	; (8002640 <TIM_OC1_SetConfig+0xd8>)
 80025c0:	4293      	cmp	r3, r2
 80025c2:	d003      	beq.n	80025cc <TIM_OC1_SetConfig+0x64>
 80025c4:	687b      	ldr	r3, [r7, #4]
 80025c6:	4a1f      	ldr	r2, [pc, #124]	; (8002644 <TIM_OC1_SetConfig+0xdc>)
 80025c8:	4293      	cmp	r3, r2
 80025ca:	d10c      	bne.n	80025e6 <TIM_OC1_SetConfig+0x7e>
  {
    /* Check parameters */
    assert_param(IS_TIM_OCN_POLARITY(OC_Config->OCNPolarity));

    /* Reset the Output N Polarity level */
    tmpccer &= ~TIM_CCER_CC1NP;
 80025cc:	697b      	ldr	r3, [r7, #20]
 80025ce:	f023 0308 	bic.w	r3, r3, #8
 80025d2:	617b      	str	r3, [r7, #20]
    /* Set the Output N Polarity */
    tmpccer |= OC_Config->OCNPolarity;
 80025d4:	683b      	ldr	r3, [r7, #0]
 80025d6:	68db      	ldr	r3, [r3, #12]
 80025d8:	697a      	ldr	r2, [r7, #20]
 80025da:	4313      	orrs	r3, r2
 80025dc:	617b      	str	r3, [r7, #20]
    /* Reset the Output N State */
    tmpccer &= ~TIM_CCER_CC1NE;
 80025de:	697b      	ldr	r3, [r7, #20]
 80025e0:	f023 0304 	bic.w	r3, r3, #4
 80025e4:	617b      	str	r3, [r7, #20]
  }

  if (IS_TIM_BREAK_INSTANCE(TIMx))
 80025e6:	687b      	ldr	r3, [r7, #4]
 80025e8:	4a15      	ldr	r2, [pc, #84]	; (8002640 <TIM_OC1_SetConfig+0xd8>)
 80025ea:	4293      	cmp	r3, r2
 80025ec:	d003      	beq.n	80025f6 <TIM_OC1_SetConfig+0x8e>
 80025ee:	687b      	ldr	r3, [r7, #4]
 80025f0:	4a14      	ldr	r2, [pc, #80]	; (8002644 <TIM_OC1_SetConfig+0xdc>)
 80025f2:	4293      	cmp	r3, r2
 80025f4:	d111      	bne.n	800261a <TIM_OC1_SetConfig+0xb2>
    /* Check parameters */
    assert_param(IS_TIM_OCNIDLE_STATE(OC_Config->OCNIdleState));
    assert_param(IS_TIM_OCIDLE_STATE(OC_Config->OCIdleState));

    /* Reset the Output Compare and Output Compare N IDLE State */
    tmpcr2 &= ~TIM_CR2_OIS1;
 80025f6:	693b      	ldr	r3, [r7, #16]
 80025f8:	f423 7380 	bic.w	r3, r3, #256	; 0x100
 80025fc:	613b      	str	r3, [r7, #16]
    tmpcr2 &= ~TIM_CR2_OIS1N;
 80025fe:	693b      	ldr	r3, [r7, #16]
 8002600:	f423 7300 	bic.w	r3, r3, #512	; 0x200
 8002604:	613b      	str	r3, [r7, #16]
    /* Set the Output Idle state */
    tmpcr2 |= OC_Config->OCIdleState;
 8002606:	683b      	ldr	r3, [r7, #0]
 8002608:	695b      	ldr	r3, [r3, #20]
 800260a:	693a      	ldr	r2, [r7, #16]
 800260c:	4313      	orrs	r3, r2
 800260e:	613b      	str	r3, [r7, #16]
    /* Set the Output N Idle state */
    tmpcr2 |= OC_Config->OCNIdleState;
 8002610:	683b      	ldr	r3, [r7, #0]
 8002612:	699b      	ldr	r3, [r3, #24]
 8002614:	693a      	ldr	r2, [r7, #16]
 8002616:	4313      	orrs	r3, r2
 8002618:	613b      	str	r3, [r7, #16]
  }

  /* Write to TIMx CR2 */
  TIMx->CR2 = tmpcr2;
 800261a:	687b      	ldr	r3, [r7, #4]
 800261c:	693a      	ldr	r2, [r7, #16]
 800261e:	605a      	str	r2, [r3, #4]

  /* Write to TIMx CCMR1 */
  TIMx->CCMR1 = tmpccmrx;
 8002620:	687b      	ldr	r3, [r7, #4]
 8002622:	68fa      	ldr	r2, [r7, #12]
 8002624:	619a      	str	r2, [r3, #24]

  /* Set the Capture Compare Register value */
  TIMx->CCR1 = OC_Config->Pulse;
 8002626:	683b      	ldr	r3, [r7, #0]
 8002628:	685a      	ldr	r2, [r3, #4]
 800262a:	687b      	ldr	r3, [r7, #4]
 800262c:	635a      	str	r2, [r3, #52]	; 0x34

  /* Write to TIMx CCER */
  TIMx->CCER = tmpccer;
 800262e:	687b      	ldr	r3, [r7, #4]
 8002630:	697a      	ldr	r2, [r7, #20]
 8002632:	621a      	str	r2, [r3, #32]
}
 8002634:	bf00      	nop
 8002636:	371c      	adds	r7, #28
 8002638:	46bd      	mov	sp, r7
 800263a:	f85d 7b04 	ldr.w	r7, [sp], #4
 800263e:	4770      	bx	lr
 8002640:	40010000 	.word	0x40010000
 8002644:	40010400 	.word	0x40010400

08002648 <TIM_OC2_SetConfig>:
  * @param  TIMx to select the TIM peripheral
  * @param  OC_Config The output configuration structure
  * @retval None
  */
void TIM_OC2_SetConfig(TIM_TypeDef *TIMx, TIM_OC_InitTypeDef *OC_Config)
{
 8002648:	b480      	push	{r7}
 800264a:	b087      	sub	sp, #28
 800264c:	af00      	add	r7, sp, #0
 800264e:	6078      	str	r0, [r7, #4]
 8002650:	6039      	str	r1, [r7, #0]
  uint32_t tmpccmrx;
  uint32_t tmpccer;
  uint32_t tmpcr2;

  /* Disable the Channel 2: Reset the CC2E Bit */
  TIMx->CCER &= ~TIM_CCER_CC2E;
 8002652:	687b      	ldr	r3, [r7, #4]
 8002654:	6a1b      	ldr	r3, [r3, #32]
 8002656:	f023 0210 	bic.w	r2, r3, #16
 800265a:	687b      	ldr	r3, [r7, #4]
 800265c:	621a      	str	r2, [r3, #32]

  /* Get the TIMx CCER register value */
  tmpccer = TIMx->CCER;
 800265e:	687b      	ldr	r3, [r7, #4]
 8002660:	6a1b      	ldr	r3, [r3, #32]
 8002662:	617b      	str	r3, [r7, #20]
  /* Get the TIMx CR2 register value */
  tmpcr2 =  TIMx->CR2;
 8002664:	687b      	ldr	r3, [r7, #4]
 8002666:	685b      	ldr	r3, [r3, #4]
 8002668:	613b      	str	r3, [r7, #16]

  /* Get the TIMx CCMR1 register value */
  tmpccmrx = TIMx->CCMR1;
 800266a:	687b      	ldr	r3, [r7, #4]
 800266c:	699b      	ldr	r3, [r3, #24]
 800266e:	60fb      	str	r3, [r7, #12]

  /* Reset the Output Compare mode and Capture/Compare selection Bits */
  tmpccmrx &= ~TIM_CCMR1_OC2M;
 8002670:	68fb      	ldr	r3, [r7, #12]
 8002672:	f423 43e0 	bic.w	r3, r3, #28672	; 0x7000
 8002676:	60fb      	str	r3, [r7, #12]
  tmpccmrx &= ~TIM_CCMR1_CC2S;
 8002678:	68fb      	ldr	r3, [r7, #12]
 800267a:	f423 7340 	bic.w	r3, r3, #768	; 0x300
 800267e:	60fb      	str	r3, [r7, #12]

  /* Select the Output Compare Mode */
  tmpccmrx |= (OC_Config->OCMode << 8U);
 8002680:	683b      	ldr	r3, [r7, #0]
 8002682:	681b      	ldr	r3, [r3, #0]
 8002684:	021b      	lsls	r3, r3, #8
 8002686:	68fa      	ldr	r2, [r7, #12]
 8002688:	4313      	orrs	r3, r2
 800268a:	60fb      	str	r3, [r7, #12]

  /* Reset the Output Polarity level */
  tmpccer &= ~TIM_CCER_CC2P;
 800268c:	697b      	ldr	r3, [r7, #20]
 800268e:	f023 0320 	bic.w	r3, r3, #32
 8002692:	617b      	str	r3, [r7, #20]
  /* Set the Output Compare Polarity */
  tmpccer |= (OC_Config->OCPolarity << 4U);
 8002694:	683b      	ldr	r3, [r7, #0]
 8002696:	689b      	ldr	r3, [r3, #8]
 8002698:	011b      	lsls	r3, r3, #4
 800269a:	697a      	ldr	r2, [r7, #20]
 800269c:	4313      	orrs	r3, r2
 800269e:	617b      	str	r3, [r7, #20]

  if (IS_TIM_CCXN_INSTANCE(TIMx, TIM_CHANNEL_2))
 80026a0:	687b      	ldr	r3, [r7, #4]
 80026a2:	4a22      	ldr	r2, [pc, #136]	; (800272c <TIM_OC2_SetConfig+0xe4>)
 80026a4:	4293      	cmp	r3, r2
 80026a6:	d003      	beq.n	80026b0 <TIM_OC2_SetConfig+0x68>
 80026a8:	687b      	ldr	r3, [r7, #4]
 80026aa:	4a21      	ldr	r2, [pc, #132]	; (8002730 <TIM_OC2_SetConfig+0xe8>)
 80026ac:	4293      	cmp	r3, r2
 80026ae:	d10d      	bne.n	80026cc <TIM_OC2_SetConfig+0x84>
  {
    assert_param(IS_TIM_OCN_POLARITY(OC_Config->OCNPolarity));

    /* Reset the Output N Polarity level */
    tmpccer &= ~TIM_CCER_CC2NP;
 80026b0:	697b      	ldr	r3, [r7, #20]
 80026b2:	f023 0380 	bic.w	r3, r3, #128	; 0x80
 80026b6:	617b      	str	r3, [r7, #20]
    /* Set the Output N Polarity */
    tmpccer |= (OC_Config->OCNPolarity << 4U);
 80026b8:	683b      	ldr	r3, [r7, #0]
 80026ba:	68db      	ldr	r3, [r3, #12]
 80026bc:	011b      	lsls	r3, r3, #4
 80026be:	697a      	ldr	r2, [r7, #20]
 80026c0:	4313      	orrs	r3, r2
 80026c2:	617b      	str	r3, [r7, #20]
    /* Reset the Output N State */
    tmpccer &= ~TIM_CCER_CC2NE;
 80026c4:	697b      	ldr	r3, [r7, #20]
 80026c6:	f023 0340 	bic.w	r3, r3, #64	; 0x40
 80026ca:	617b      	str	r3, [r7, #20]

  }

  if (IS_TIM_BREAK_INSTANCE(TIMx))
 80026cc:	687b      	ldr	r3, [r7, #4]
 80026ce:	4a17      	ldr	r2, [pc, #92]	; (800272c <TIM_OC2_SetConfig+0xe4>)
 80026d0:	4293      	cmp	r3, r2
 80026d2:	d003      	beq.n	80026dc <TIM_OC2_SetConfig+0x94>
 80026d4:	687b      	ldr	r3, [r7, #4]
 80026d6:	4a16      	ldr	r2, [pc, #88]	; (8002730 <TIM_OC2_SetConfig+0xe8>)
 80026d8:	4293      	cmp	r3, r2
 80026da:	d113      	bne.n	8002704 <TIM_OC2_SetConfig+0xbc>
    /* Check parameters */
    assert_param(IS_TIM_OCNIDLE_STATE(OC_Config->OCNIdleState));
    assert_param(IS_TIM_OCIDLE_STATE(OC_Config->OCIdleState));

    /* Reset the Output Compare and Output Compare N IDLE State */
    tmpcr2 &= ~TIM_CR2_OIS2;
 80026dc:	693b      	ldr	r3, [r7, #16]
 80026de:	f423 6380 	bic.w	r3, r3, #1024	; 0x400
 80026e2:	613b      	str	r3, [r7, #16]
    tmpcr2 &= ~TIM_CR2_OIS2N;
 80026e4:	693b      	ldr	r3, [r7, #16]
 80026e6:	f423 6300 	bic.w	r3, r3, #2048	; 0x800
 80026ea:	613b      	str	r3, [r7, #16]
    /* Set the Output Idle state */
    tmpcr2 |= (OC_Config->OCIdleState << 2U);
 80026ec:	683b      	ldr	r3, [r7, #0]
 80026ee:	695b      	ldr	r3, [r3, #20]
 80026f0:	009b      	lsls	r3, r3, #2
 80026f2:	693a      	ldr	r2, [r7, #16]
 80026f4:	4313      	orrs	r3, r2
 80026f6:	613b      	str	r3, [r7, #16]
    /* Set the Output N Idle state */
    tmpcr2 |= (OC_Config->OCNIdleState << 2U);
 80026f8:	683b      	ldr	r3, [r7, #0]
 80026fa:	699b      	ldr	r3, [r3, #24]
 80026fc:	009b      	lsls	r3, r3, #2
 80026fe:	693a      	ldr	r2, [r7, #16]
 8002700:	4313      	orrs	r3, r2
 8002702:	613b      	str	r3, [r7, #16]
  }

  /* Write to TIMx CR2 */
  TIMx->CR2 = tmpcr2;
 8002704:	687b      	ldr	r3, [r7, #4]
 8002706:	693a      	ldr	r2, [r7, #16]
 8002708:	605a      	str	r2, [r3, #4]

  /* Write to TIMx CCMR1 */
  TIMx->CCMR1 = tmpccmrx;
 800270a:	687b      	ldr	r3, [r7, #4]
 800270c:	68fa      	ldr	r2, [r7, #12]
 800270e:	619a      	str	r2, [r3, #24]

  /* Set the Capture Compare Register value */
  TIMx->CCR2 = OC_Config->Pulse;
 8002710:	683b      	ldr	r3, [r7, #0]
 8002712:	685a      	ldr	r2, [r3, #4]
 8002714:	687b      	ldr	r3, [r7, #4]
 8002716:	639a      	str	r2, [r3, #56]	; 0x38

  /* Write to TIMx CCER */
  TIMx->CCER = tmpccer;
 8002718:	687b      	ldr	r3, [r7, #4]
 800271a:	697a      	ldr	r2, [r7, #20]
 800271c:	621a      	str	r2, [r3, #32]
}
 800271e:	bf00      	nop
 8002720:	371c      	adds	r7, #28
 8002722:	46bd      	mov	sp, r7
 8002724:	f85d 7b04 	ldr.w	r7, [sp], #4
 8002728:	4770      	bx	lr
 800272a:	bf00      	nop
 800272c:	40010000 	.word	0x40010000
 8002730:	40010400 	.word	0x40010400

08002734 <TIM_OC3_SetConfig>:
  * @param  TIMx to select the TIM peripheral
  * @param  OC_Config The output configuration structure
  * @retval None
  */
static void TIM_OC3_SetConfig(TIM_TypeDef *TIMx, TIM_OC_InitTypeDef *OC_Config)
{
 8002734:	b480      	push	{r7}
 8002736:	b087      	sub	sp, #28
 8002738:	af00      	add	r7, sp, #0
 800273a:	6078      	str	r0, [r7, #4]
 800273c:	6039      	str	r1, [r7, #0]
  uint32_t tmpccmrx;
  uint32_t tmpccer;
  uint32_t tmpcr2;

  /* Disable the Channel 3: Reset the CC2E Bit */
  TIMx->CCER &= ~TIM_CCER_CC3E;
 800273e:	687b      	ldr	r3, [r7, #4]
 8002740:	6a1b      	ldr	r3, [r3, #32]
 8002742:	f423 7280 	bic.w	r2, r3, #256	; 0x100
 8002746:	687b      	ldr	r3, [r7, #4]
 8002748:	621a      	str	r2, [r3, #32]

  /* Get the TIMx CCER register value */
  tmpccer = TIMx->CCER;
 800274a:	687b      	ldr	r3, [r7, #4]
 800274c:	6a1b      	ldr	r3, [r3, #32]
 800274e:	617b      	str	r3, [r7, #20]
  /* Get the TIMx CR2 register value */
  tmpcr2 =  TIMx->CR2;
 8002750:	687b      	ldr	r3, [r7, #4]
 8002752:	685b      	ldr	r3, [r3, #4]
 8002754:	613b      	str	r3, [r7, #16]

  /* Get the TIMx CCMR2 register value */
  tmpccmrx = TIMx->CCMR2;
 8002756:	687b      	ldr	r3, [r7, #4]
 8002758:	69db      	ldr	r3, [r3, #28]
 800275a:	60fb      	str	r3, [r7, #12]

  /* Reset the Output Compare mode and Capture/Compare selection Bits */
  tmpccmrx &= ~TIM_CCMR2_OC3M;
 800275c:	68fb      	ldr	r3, [r7, #12]
 800275e:	f023 0370 	bic.w	r3, r3, #112	; 0x70
 8002762:	60fb      	str	r3, [r7, #12]
  tmpccmrx &= ~TIM_CCMR2_CC3S;
 8002764:	68fb      	ldr	r3, [r7, #12]
 8002766:	f023 0303 	bic.w	r3, r3, #3
 800276a:	60fb      	str	r3, [r7, #12]
  /* Select the Output Compare Mode */
  tmpccmrx |= OC_Config->OCMode;
 800276c:	683b      	ldr	r3, [r7, #0]
 800276e:	681b      	ldr	r3, [r3, #0]
 8002770:	68fa      	ldr	r2, [r7, #12]
 8002772:	4313      	orrs	r3, r2
 8002774:	60fb      	str	r3, [r7, #12]

  /* Reset the Output Polarity level */
  tmpccer &= ~TIM_CCER_CC3P;
 8002776:	697b      	ldr	r3, [r7, #20]
 8002778:	f423 7300 	bic.w	r3, r3, #512	; 0x200
 800277c:	617b      	str	r3, [r7, #20]
  /* Set the Output Compare Polarity */
  tmpccer |= (OC_Config->OCPolarity << 8U);
 800277e:	683b      	ldr	r3, [r7, #0]
 8002780:	689b      	ldr	r3, [r3, #8]
 8002782:	021b      	lsls	r3, r3, #8
 8002784:	697a      	ldr	r2, [r7, #20]
 8002786:	4313      	orrs	r3, r2
 8002788:	617b      	str	r3, [r7, #20]

  if (IS_TIM_CCXN_INSTANCE(TIMx, TIM_CHANNEL_3))
 800278a:	687b      	ldr	r3, [r7, #4]
 800278c:	4a21      	ldr	r2, [pc, #132]	; (8002814 <TIM_OC3_SetConfig+0xe0>)
 800278e:	4293      	cmp	r3, r2
 8002790:	d003      	beq.n	800279a <TIM_OC3_SetConfig+0x66>
 8002792:	687b      	ldr	r3, [r7, #4]
 8002794:	4a20      	ldr	r2, [pc, #128]	; (8002818 <TIM_OC3_SetConfig+0xe4>)
 8002796:	4293      	cmp	r3, r2
 8002798:	d10d      	bne.n	80027b6 <TIM_OC3_SetConfig+0x82>
  {
    assert_param(IS_TIM_OCN_POLARITY(OC_Config->OCNPolarity));

    /* Reset the Output N Polarity level */
    tmpccer &= ~TIM_CCER_CC3NP;
 800279a:	697b      	ldr	r3, [r7, #20]
 800279c:	f423 6300 	bic.w	r3, r3, #2048	; 0x800
 80027a0:	617b      	str	r3, [r7, #20]
    /* Set the Output N Polarity */
    tmpccer |= (OC_Config->OCNPolarity << 8U);
 80027a2:	683b      	ldr	r3, [r7, #0]
 80027a4:	68db      	ldr	r3, [r3, #12]
 80027a6:	021b      	lsls	r3, r3, #8
 80027a8:	697a      	ldr	r2, [r7, #20]
 80027aa:	4313      	orrs	r3, r2
 80027ac:	617b      	str	r3, [r7, #20]
    /* Reset the Output N State */
    tmpccer &= ~TIM_CCER_CC3NE;
 80027ae:	697b      	ldr	r3, [r7, #20]
 80027b0:	f423 6380 	bic.w	r3, r3, #1024	; 0x400
 80027b4:	617b      	str	r3, [r7, #20]
  }

  if (IS_TIM_BREAK_INSTANCE(TIMx))
 80027b6:	687b      	ldr	r3, [r7, #4]
 80027b8:	4a16      	ldr	r2, [pc, #88]	; (8002814 <TIM_OC3_SetConfig+0xe0>)
 80027ba:	4293      	cmp	r3, r2
 80027bc:	d003      	beq.n	80027c6 <TIM_OC3_SetConfig+0x92>
 80027be:	687b      	ldr	r3, [r7, #4]
 80027c0:	4a15      	ldr	r2, [pc, #84]	; (8002818 <TIM_OC3_SetConfig+0xe4>)
 80027c2:	4293      	cmp	r3, r2
 80027c4:	d113      	bne.n	80027ee <TIM_OC3_SetConfig+0xba>
    /* Check parameters */
    assert_param(IS_TIM_OCNIDLE_STATE(OC_Config->OCNIdleState));
    assert_param(IS_TIM_OCIDLE_STATE(OC_Config->OCIdleState));

    /* Reset the Output Compare and Output Compare N IDLE State */
    tmpcr2 &= ~TIM_CR2_OIS3;
 80027c6:	693b      	ldr	r3, [r7, #16]
 80027c8:	f423 5380 	bic.w	r3, r3, #4096	; 0x1000
 80027cc:	613b      	str	r3, [r7, #16]
    tmpcr2 &= ~TIM_CR2_OIS3N;
 80027ce:	693b      	ldr	r3, [r7, #16]
 80027d0:	f423 5300 	bic.w	r3, r3, #8192	; 0x2000
 80027d4:	613b      	str	r3, [r7, #16]
    /* Set the Output Idle state */
    tmpcr2 |= (OC_Config->OCIdleState << 4U);
 80027d6:	683b      	ldr	r3, [r7, #0]
 80027d8:	695b      	ldr	r3, [r3, #20]
 80027da:	011b      	lsls	r3, r3, #4
 80027dc:	693a      	ldr	r2, [r7, #16]
 80027de:	4313      	orrs	r3, r2
 80027e0:	613b      	str	r3, [r7, #16]
    /* Set the Output N Idle state */
    tmpcr2 |= (OC_Config->OCNIdleState << 4U);
 80027e2:	683b      	ldr	r3, [r7, #0]
 80027e4:	699b      	ldr	r3, [r3, #24]
 80027e6:	011b      	lsls	r3, r3, #4
 80027e8:	693a      	ldr	r2, [r7, #16]
 80027ea:	4313      	orrs	r3, r2
 80027ec:	613b      	str	r3, [r7, #16]
  }

  /* Write to TIMx CR2 */
  TIMx->CR2 = tmpcr2;
 80027ee:	687b      	ldr	r3, [r7, #4]
 80027f0:	693a      	ldr	r2, [r7, #16]
 80027f2:	605a      	str	r2, [r3, #4]

  /* Write to TIMx CCMR2 */
  TIMx->CCMR2 = tmpccmrx;
 80027f4:	687b      	ldr	r3, [r7, #4]
 80027f6:	68fa      	ldr	r2, [r7, #12]
 80027f8:	61da      	str	r2, [r3, #28]

  /* Set the Capture Compare Register value */
  TIMx->CCR3 = OC_Config->Pulse;
 80027fa:	683b      	ldr	r3, [r7, #0]
 80027fc:	685a      	ldr	r2, [r3, #4]
 80027fe:	687b      	ldr	r3, [r7, #4]
 8002800:	63da      	str	r2, [r3, #60]	; 0x3c

  /* Write to TIMx CCER */
  TIMx->CCER = tmpccer;
 8002802:	687b      	ldr	r3, [r7, #4]
 8002804:	697a      	ldr	r2, [r7, #20]
 8002806:	621a      	str	r2, [r3, #32]
}
 8002808:	bf00      	nop
 800280a:	371c      	adds	r7, #28
 800280c:	46bd      	mov	sp, r7
 800280e:	f85d 7b04 	ldr.w	r7, [sp], #4
 8002812:	4770      	bx	lr
 8002814:	40010000 	.word	0x40010000
 8002818:	40010400 	.word	0x40010400

0800281c <TIM_OC4_SetConfig>:
  * @param  TIMx to select the TIM peripheral
  * @param  OC_Config The output configuration structure
  * @retval None
  */
static void TIM_OC4_SetConfig(TIM_TypeDef *TIMx, TIM_OC_InitTypeDef *OC_Config)
{
 800281c:	b480      	push	{r7}
 800281e:	b087      	sub	sp, #28
 8002820:	af00      	add	r7, sp, #0
 8002822:	6078      	str	r0, [r7, #4]
 8002824:	6039      	str	r1, [r7, #0]
  uint32_t tmpccmrx;
  uint32_t tmpccer;
  uint32_t tmpcr2;

  /* Disable the Channel 4: Reset the CC4E Bit */
  TIMx->CCER &= ~TIM_CCER_CC4E;
 8002826:	687b      	ldr	r3, [r7, #4]
 8002828:	6a1b      	ldr	r3, [r3, #32]
 800282a:	f423 5280 	bic.w	r2, r3, #4096	; 0x1000
 800282e:	687b      	ldr	r3, [r7, #4]
 8002830:	621a      	str	r2, [r3, #32]

  /* Get the TIMx CCER register value */
  tmpccer = TIMx->CCER;
 8002832:	687b      	ldr	r3, [r7, #4]
 8002834:	6a1b      	ldr	r3, [r3, #32]
 8002836:	613b      	str	r3, [r7, #16]
  /* Get the TIMx CR2 register value */
  tmpcr2 =  TIMx->CR2;
 8002838:	687b      	ldr	r3, [r7, #4]
 800283a:	685b      	ldr	r3, [r3, #4]
 800283c:	617b      	str	r3, [r7, #20]

  /* Get the TIMx CCMR2 register value */
  tmpccmrx = TIMx->CCMR2;
 800283e:	687b      	ldr	r3, [r7, #4]
 8002840:	69db      	ldr	r3, [r3, #28]
 8002842:	60fb      	str	r3, [r7, #12]

  /* Reset the Output Compare mode and Capture/Compare selection Bits */
  tmpccmrx &= ~TIM_CCMR2_OC4M;
 8002844:	68fb      	ldr	r3, [r7, #12]
 8002846:	f423 43e0 	bic.w	r3, r3, #28672	; 0x7000
 800284a:	60fb      	str	r3, [r7, #12]
  tmpccmrx &= ~TIM_CCMR2_CC4S;
 800284c:	68fb      	ldr	r3, [r7, #12]
 800284e:	f423 7340 	bic.w	r3, r3, #768	; 0x300
 8002852:	60fb      	str	r3, [r7, #12]

  /* Select the Output Compare Mode */
  tmpccmrx |= (OC_Config->OCMode << 8U);
 8002854:	683b      	ldr	r3, [r7, #0]
 8002856:	681b      	ldr	r3, [r3, #0]
 8002858:	021b      	lsls	r3, r3, #8
 800285a:	68fa      	ldr	r2, [r7, #12]
 800285c:	4313      	orrs	r3, r2
 800285e:	60fb      	str	r3, [r7, #12]

  /* Reset the Output Polarity level */
  tmpccer &= ~TIM_CCER_CC4P;
 8002860:	693b      	ldr	r3, [r7, #16]
 8002862:	f423 5300 	bic.w	r3, r3, #8192	; 0x2000
 8002866:	613b      	str	r3, [r7, #16]
  /* Set the Output Compare Polarity */
  tmpccer |= (OC_Config->OCPolarity << 12U);
 8002868:	683b      	ldr	r3, [r7, #0]
 800286a:	689b      	ldr	r3, [r3, #8]
 800286c:	031b      	lsls	r3, r3, #12
 800286e:	693a      	ldr	r2, [r7, #16]
 8002870:	4313      	orrs	r3, r2
 8002872:	613b      	str	r3, [r7, #16]

  if (IS_TIM_BREAK_INSTANCE(TIMx))
 8002874:	687b      	ldr	r3, [r7, #4]
 8002876:	4a12      	ldr	r2, [pc, #72]	; (80028c0 <TIM_OC4_SetConfig+0xa4>)
 8002878:	4293      	cmp	r3, r2
 800287a:	d003      	beq.n	8002884 <TIM_OC4_SetConfig+0x68>
 800287c:	687b      	ldr	r3, [r7, #4]
 800287e:	4a11      	ldr	r2, [pc, #68]	; (80028c4 <TIM_OC4_SetConfig+0xa8>)
 8002880:	4293      	cmp	r3, r2
 8002882:	d109      	bne.n	8002898 <TIM_OC4_SetConfig+0x7c>
  {
    /* Check parameters */
    assert_param(IS_TIM_OCIDLE_STATE(OC_Config->OCIdleState));

    /* Reset the Output Compare IDLE State */
    tmpcr2 &= ~TIM_CR2_OIS4;
 8002884:	697b      	ldr	r3, [r7, #20]
 8002886:	f423 4380 	bic.w	r3, r3, #16384	; 0x4000
 800288a:	617b      	str	r3, [r7, #20]

    /* Set the Output Idle state */
    tmpcr2 |= (OC_Config->OCIdleState << 6U);
 800288c:	683b      	ldr	r3, [r7, #0]
 800288e:	695b      	ldr	r3, [r3, #20]
 8002890:	019b      	lsls	r3, r3, #6
 8002892:	697a      	ldr	r2, [r7, #20]
 8002894:	4313      	orrs	r3, r2
 8002896:	617b      	str	r3, [r7, #20]
  }

  /* Write to TIMx CR2 */
  TIMx->CR2 = tmpcr2;
 8002898:	687b      	ldr	r3, [r7, #4]
 800289a:	697a      	ldr	r2, [r7, #20]
 800289c:	605a      	str	r2, [r3, #4]

  /* Write to TIMx CCMR2 */
  TIMx->CCMR2 = tmpccmrx;
 800289e:	687b      	ldr	r3, [r7, #4]
 80028a0:	68fa      	ldr	r2, [r7, #12]
 80028a2:	61da      	str	r2, [r3, #28]

  /* Set the Capture Compare Register value */
  TIMx->CCR4 = OC_Config->Pulse;
 80028a4:	683b      	ldr	r3, [r7, #0]
 80028a6:	685a      	ldr	r2, [r3, #4]
 80028a8:	687b      	ldr	r3, [r7, #4]
 80028aa:	641a      	str	r2, [r3, #64]	; 0x40

  /* Write to TIMx CCER */
  TIMx->CCER = tmpccer;
 80028ac:	687b      	ldr	r3, [r7, #4]
 80028ae:	693a      	ldr	r2, [r7, #16]
 80028b0:	621a      	str	r2, [r3, #32]
}
 80028b2:	bf00      	nop
 80028b4:	371c      	adds	r7, #28
 80028b6:	46bd      	mov	sp, r7
 80028b8:	f85d 7b04 	ldr.w	r7, [sp], #4
 80028bc:	4770      	bx	lr
 80028be:	bf00      	nop
 80028c0:	40010000 	.word	0x40010000
 80028c4:	40010400 	.word	0x40010400

080028c8 <TIM_CCxChannelCmd>:
  * @param  ChannelState specifies the TIM Channel CCxE bit new state.
  *          This parameter can be: TIM_CCx_ENABLE or TIM_CCx_DISABLE.
  * @retval None
  */
void TIM_CCxChannelCmd(TIM_TypeDef *TIMx, uint32_t Channel, uint32_t ChannelState)
{
 80028c8:	b480      	push	{r7}
 80028ca:	b087      	sub	sp, #28
 80028cc:	af00      	add	r7, sp, #0
 80028ce:	60f8      	str	r0, [r7, #12]
 80028d0:	60b9      	str	r1, [r7, #8]
 80028d2:	607a      	str	r2, [r7, #4]

  /* Check the parameters */
  assert_param(IS_TIM_CC1_INSTANCE(TIMx));
  assert_param(IS_TIM_CHANNELS(Channel));

  tmp = TIM_CCER_CC1E << (Channel & 0x1FU); /* 0x1FU = 31 bits max shift */
 80028d4:	68bb      	ldr	r3, [r7, #8]
 80028d6:	f003 031f 	and.w	r3, r3, #31
 80028da:	2201      	movs	r2, #1
 80028dc:	fa02 f303 	lsl.w	r3, r2, r3
 80028e0:	617b      	str	r3, [r7, #20]

  /* Reset the CCxE Bit */
  TIMx->CCER &= ~tmp;
 80028e2:	68fb      	ldr	r3, [r7, #12]
 80028e4:	6a1a      	ldr	r2, [r3, #32]
 80028e6:	697b      	ldr	r3, [r7, #20]
 80028e8:	43db      	mvns	r3, r3
 80028ea:	401a      	ands	r2, r3
 80028ec:	68fb      	ldr	r3, [r7, #12]
 80028ee:	621a      	str	r2, [r3, #32]

  /* Set or reset the CCxE Bit */
  TIMx->CCER |= (uint32_t)(ChannelState << (Channel & 0x1FU)); /* 0x1FU = 31 bits max shift */
 80028f0:	68fb      	ldr	r3, [r7, #12]
 80028f2:	6a1a      	ldr	r2, [r3, #32]
 80028f4:	68bb      	ldr	r3, [r7, #8]
 80028f6:	f003 031f 	and.w	r3, r3, #31
 80028fa:	6879      	ldr	r1, [r7, #4]
 80028fc:	fa01 f303 	lsl.w	r3, r1, r3
 8002900:	431a      	orrs	r2, r3
 8002902:	68fb      	ldr	r3, [r7, #12]
 8002904:	621a      	str	r2, [r3, #32]
}
 8002906:	bf00      	nop
 8002908:	371c      	adds	r7, #28
 800290a:	46bd      	mov	sp, r7
 800290c:	f85d 7b04 	ldr.w	r7, [sp], #4
 8002910:	4770      	bx	lr

08002912 <HAL_TIMEx_CommutCallback>:
  * @brief  Hall commutation changed callback in non-blocking mode
  * @param  htim TIM handle
  * @retval None
  */
__weak void HAL_TIMEx_CommutCallback(TIM_HandleTypeDef *htim)
{
 8002912:	b480      	push	{r7}
 8002914:	b083      	sub	sp, #12
 8002916:	af00      	add	r7, sp, #0
 8002918:	6078      	str	r0, [r7, #4]
  UNUSED(htim);

  /* NOTE : This function should not be modified, when the callback is needed,
            the HAL_TIMEx_CommutCallback could be implemented in the user file
   */
}
 800291a:	bf00      	nop
 800291c:	370c      	adds	r7, #12
 800291e:	46bd      	mov	sp, r7
 8002920:	f85d 7b04 	ldr.w	r7, [sp], #4
 8002924:	4770      	bx	lr

08002926 <HAL_TIMEx_BreakCallback>:
  * @brief  Hall Break detection callback in non-blocking mode
  * @param  htim TIM handle
  * @retval None
  */
__weak void HAL_TIMEx_BreakCallback(TIM_HandleTypeDef *htim)
{
 8002926:	b480      	push	{r7}
 8002928:	b083      	sub	sp, #12
 800292a:	af00      	add	r7, sp, #0
 800292c:	6078      	str	r0, [r7, #4]
  UNUSED(htim);

  /* NOTE : This function should not be modified, when the callback is needed,
            the HAL_TIMEx_BreakCallback could be implemented in the user file
   */
}
 800292e:	bf00      	nop
 8002930:	370c      	adds	r7, #12
 8002932:	46bd      	mov	sp, r7
 8002934:	f85d 7b04 	ldr.w	r7, [sp], #4
 8002938:	4770      	bx	lr

0800293a <HAL_UART_Init>:
  * @param  huart  Pointer to a UART_HandleTypeDef structure that contains
  *                the configuration information for the specified UART module.
  * @retval HAL status
  */
HAL_StatusTypeDef HAL_UART_Init(UART_HandleTypeDef *huart)
{
 800293a:	b580      	push	{r7, lr}
 800293c:	b082      	sub	sp, #8
 800293e:	af00      	add	r7, sp, #0
 8002940:	6078      	str	r0, [r7, #4]
  /* Check the UART handle allocation */
  if (huart == NULL)
 8002942:	687b      	ldr	r3, [r7, #4]
 8002944:	2b00      	cmp	r3, #0
 8002946:	d101      	bne.n	800294c <HAL_UART_Init+0x12>
  {
    return HAL_ERROR;
 8002948:	2301      	movs	r3, #1
 800294a:	e03f      	b.n	80029cc <HAL_UART_Init+0x92>
    assert_param(IS_UART_INSTANCE(huart->Instance));
  }
  assert_param(IS_UART_WORD_LENGTH(huart->Init.WordLength));
  assert_param(IS_UART_OVERSAMPLING(huart->Init.OverSampling));

  if (huart->gState == HAL_UART_STATE_RESET)
 800294c:	687b      	ldr	r3, [r7, #4]
 800294e:	f893 303d 	ldrb.w	r3, [r3, #61]	; 0x3d
 8002952:	b2db      	uxtb	r3, r3
 8002954:	2b00      	cmp	r3, #0
 8002956:	d106      	bne.n	8002966 <HAL_UART_Init+0x2c>
  {
    /* Allocate lock resource and initialize it */
    huart->Lock = HAL_UNLOCKED;
 8002958:	687b      	ldr	r3, [r7, #4]
 800295a:	2200      	movs	r2, #0
 800295c:	f883 203c 	strb.w	r2, [r3, #60]	; 0x3c

    /* Init the low level hardware */
    huart->MspInitCallback(huart);
#else
    /* Init the low level hardware : GPIO, CLOCK */
    HAL_UART_MspInit(huart);
 8002960:	6878      	ldr	r0, [r7, #4]
 8002962:	f7fe f853 	bl	8000a0c <HAL_UART_MspInit>
#endif /* (USE_HAL_UART_REGISTER_CALLBACKS) */
  }

  huart->gState = HAL_UART_STATE_BUSY;
 8002966:	687b      	ldr	r3, [r7, #4]
 8002968:	2224      	movs	r2, #36	; 0x24
 800296a:	f883 203d 	strb.w	r2, [r3, #61]	; 0x3d

  /* Disable the peripheral */
  __HAL_UART_DISABLE(huart);
 800296e:	687b      	ldr	r3, [r7, #4]
 8002970:	681b      	ldr	r3, [r3, #0]
 8002972:	68da      	ldr	r2, [r3, #12]
 8002974:	687b      	ldr	r3, [r7, #4]
 8002976:	681b      	ldr	r3, [r3, #0]
 8002978:	f422 5200 	bic.w	r2, r2, #8192	; 0x2000
 800297c:	60da      	str	r2, [r3, #12]

  /* Set the UART Communication parameters */
  UART_SetConfig(huart);
 800297e:	6878      	ldr	r0, [r7, #4]
 8002980:	f000 f828 	bl	80029d4 <UART_SetConfig>

  /* In asynchronous mode, the following bits must be kept cleared:
     - LINEN and CLKEN bits in the USART_CR2 register,
     - SCEN, HDSEL and IREN  bits in the USART_CR3 register.*/
  CLEAR_BIT(huart->Instance->CR2, (USART_CR2_LINEN | USART_CR2_CLKEN));
 8002984:	687b      	ldr	r3, [r7, #4]
 8002986:	681b      	ldr	r3, [r3, #0]
 8002988:	691a      	ldr	r2, [r3, #16]
 800298a:	687b      	ldr	r3, [r7, #4]
 800298c:	681b      	ldr	r3, [r3, #0]
 800298e:	f422 4290 	bic.w	r2, r2, #18432	; 0x4800
 8002992:	611a      	str	r2, [r3, #16]
  CLEAR_BIT(huart->Instance->CR3, (USART_CR3_SCEN | USART_CR3_HDSEL | USART_CR3_IREN));
 8002994:	687b      	ldr	r3, [r7, #4]
 8002996:	681b      	ldr	r3, [r3, #0]
 8002998:	695a      	ldr	r2, [r3, #20]
 800299a:	687b      	ldr	r3, [r7, #4]
 800299c:	681b      	ldr	r3, [r3, #0]
 800299e:	f022 022a 	bic.w	r2, r2, #42	; 0x2a
 80029a2:	615a      	str	r2, [r3, #20]

  /* Enable the peripheral */
  __HAL_UART_ENABLE(huart);
 80029a4:	687b      	ldr	r3, [r7, #4]
 80029a6:	681b      	ldr	r3, [r3, #0]
 80029a8:	68da      	ldr	r2, [r3, #12]
 80029aa:	687b      	ldr	r3, [r7, #4]
 80029ac:	681b      	ldr	r3, [r3, #0]
 80029ae:	f442 5200 	orr.w	r2, r2, #8192	; 0x2000
 80029b2:	60da      	str	r2, [r3, #12]

  /* Initialize the UART state */
  huart->ErrorCode = HAL_UART_ERROR_NONE;
 80029b4:	687b      	ldr	r3, [r7, #4]
 80029b6:	2200      	movs	r2, #0
 80029b8:	641a      	str	r2, [r3, #64]	; 0x40
  huart->gState = HAL_UART_STATE_READY;
 80029ba:	687b      	ldr	r3, [r7, #4]
 80029bc:	2220      	movs	r2, #32
 80029be:	f883 203d 	strb.w	r2, [r3, #61]	; 0x3d
  huart->RxState = HAL_UART_STATE_READY;
 80029c2:	687b      	ldr	r3, [r7, #4]
 80029c4:	2220      	movs	r2, #32
 80029c6:	f883 203e 	strb.w	r2, [r3, #62]	; 0x3e

  return HAL_OK;
 80029ca:	2300      	movs	r3, #0
}
 80029cc:	4618      	mov	r0, r3
 80029ce:	3708      	adds	r7, #8
 80029d0:	46bd      	mov	sp, r7
 80029d2:	bd80      	pop	{r7, pc}

080029d4 <UART_SetConfig>:
  * @param  huart  Pointer to a UART_HandleTypeDef structure that contains
  *                the configuration information for the specified UART module.
  * @retval None
  */
static void UART_SetConfig(UART_HandleTypeDef *huart)
{
 80029d4:	e92d 4fb0 	stmdb	sp!, {r4, r5, r7, r8, r9, sl, fp, lr}
 80029d8:	b0c0      	sub	sp, #256	; 0x100
 80029da:	af00      	add	r7, sp, #0
 80029dc:	f8c7 00f4 	str.w	r0, [r7, #244]	; 0xf4
  assert_param(IS_UART_MODE(huart->Init.Mode));

  /*-------------------------- USART CR2 Configuration -----------------------*/
  /* Configure the UART Stop Bits: Set STOP[13:12] bits
     according to huart->Init.StopBits value */
  MODIFY_REG(huart->Instance->CR2, USART_CR2_STOP, huart->Init.StopBits);
 80029e0:	f8d7 30f4 	ldr.w	r3, [r7, #244]	; 0xf4
 80029e4:	681b      	ldr	r3, [r3, #0]
 80029e6:	691b      	ldr	r3, [r3, #16]
 80029e8:	f423 5040 	bic.w	r0, r3, #12288	; 0x3000
 80029ec:	f8d7 30f4 	ldr.w	r3, [r7, #244]	; 0xf4
 80029f0:	68d9      	ldr	r1, [r3, #12]
 80029f2:	f8d7 30f4 	ldr.w	r3, [r7, #244]	; 0xf4
 80029f6:	681a      	ldr	r2, [r3, #0]
 80029f8:	ea40 0301 	orr.w	r3, r0, r1
 80029fc:	6113      	str	r3, [r2, #16]
     Set the M bits according to huart->Init.WordLength value
     Set PCE and PS bits according to huart->Init.Parity value
     Set TE and RE bits according to huart->Init.Mode value
     Set OVER8 bit according to huart->Init.OverSampling value */

  tmpreg = (uint32_t)huart->Init.WordLength | huart->Init.Parity | huart->Init.Mode | huart->Init.OverSampling;
 80029fe:	f8d7 30f4 	ldr.w	r3, [r7, #244]	; 0xf4
 8002a02:	689a      	ldr	r2, [r3, #8]
 8002a04:	f8d7 30f4 	ldr.w	r3, [r7, #244]	; 0xf4
 8002a08:	691b      	ldr	r3, [r3, #16]
 8002a0a:	431a      	orrs	r2, r3
 8002a0c:	f8d7 30f4 	ldr.w	r3, [r7, #244]	; 0xf4
 8002a10:	695b      	ldr	r3, [r3, #20]
 8002a12:	431a      	orrs	r2, r3
 8002a14:	f8d7 30f4 	ldr.w	r3, [r7, #244]	; 0xf4
 8002a18:	69db      	ldr	r3, [r3, #28]
 8002a1a:	4313      	orrs	r3, r2
 8002a1c:	f8c7 30f8 	str.w	r3, [r7, #248]	; 0xf8
  MODIFY_REG(huart->Instance->CR1,
 8002a20:	f8d7 30f4 	ldr.w	r3, [r7, #244]	; 0xf4
 8002a24:	681b      	ldr	r3, [r3, #0]
 8002a26:	68db      	ldr	r3, [r3, #12]
 8002a28:	f423 4116 	bic.w	r1, r3, #38400	; 0x9600
 8002a2c:	f021 010c 	bic.w	r1, r1, #12
 8002a30:	f8d7 30f4 	ldr.w	r3, [r7, #244]	; 0xf4
 8002a34:	681a      	ldr	r2, [r3, #0]
 8002a36:	f8d7 30f8 	ldr.w	r3, [r7, #248]	; 0xf8
 8002a3a:	430b      	orrs	r3, r1
 8002a3c:	60d3      	str	r3, [r2, #12]
             (uint32_t)(USART_CR1_M | USART_CR1_PCE | USART_CR1_PS | USART_CR1_TE | USART_CR1_RE | USART_CR1_OVER8),
             tmpreg);

  /*-------------------------- USART CR3 Configuration -----------------------*/
  /* Configure the UART HFC: Set CTSE and RTSE bits according to huart->Init.HwFlowCtl value */
  MODIFY_REG(huart->Instance->CR3, (USART_CR3_RTSE | USART_CR3_CTSE), huart->Init.HwFlowCtl);
 8002a3e:	f8d7 30f4 	ldr.w	r3, [r7, #244]	; 0xf4
 8002a42:	681b      	ldr	r3, [r3, #0]
 8002a44:	695b      	ldr	r3, [r3, #20]
 8002a46:	f423 7040 	bic.w	r0, r3, #768	; 0x300
 8002a4a:	f8d7 30f4 	ldr.w	r3, [r7, #244]	; 0xf4
 8002a4e:	6999      	ldr	r1, [r3, #24]
 8002a50:	f8d7 30f4 	ldr.w	r3, [r7, #244]	; 0xf4
 8002a54:	681a      	ldr	r2, [r3, #0]
 8002a56:	ea40 0301 	orr.w	r3, r0, r1
 8002a5a:	6153      	str	r3, [r2, #20]
    if ((huart->Instance == USART1) || (huart->Instance == USART6) || (huart->Instance == UART9) || (huart->Instance == UART10))
    {
      pclk = HAL_RCC_GetPCLK2Freq();
    }
#elif defined(USART6)
    if ((huart->Instance == USART1) || (huart->Instance == USART6))
 8002a5c:	f8d7 30f4 	ldr.w	r3, [r7, #244]	; 0xf4
 8002a60:	681a      	ldr	r2, [r3, #0]
 8002a62:	4b8f      	ldr	r3, [pc, #572]	; (8002ca0 <UART_SetConfig+0x2cc>)
 8002a64:	429a      	cmp	r2, r3
 8002a66:	d005      	beq.n	8002a74 <UART_SetConfig+0xa0>
 8002a68:	f8d7 30f4 	ldr.w	r3, [r7, #244]	; 0xf4
 8002a6c:	681a      	ldr	r2, [r3, #0]
 8002a6e:	4b8d      	ldr	r3, [pc, #564]	; (8002ca4 <UART_SetConfig+0x2d0>)
 8002a70:	429a      	cmp	r2, r3
 8002a72:	d104      	bne.n	8002a7e <UART_SetConfig+0xaa>
    {
      pclk = HAL_RCC_GetPCLK2Freq();
 8002a74:	f7fe fca8 	bl	80013c8 <HAL_RCC_GetPCLK2Freq>
 8002a78:	f8c7 00fc 	str.w	r0, [r7, #252]	; 0xfc
 8002a7c:	e003      	b.n	8002a86 <UART_SetConfig+0xb2>
      pclk = HAL_RCC_GetPCLK2Freq();
    }
#endif /* USART6 */
    else
    {
      pclk = HAL_RCC_GetPCLK1Freq();
 8002a7e:	f7fe fc8f 	bl	80013a0 <HAL_RCC_GetPCLK1Freq>
 8002a82:	f8c7 00fc 	str.w	r0, [r7, #252]	; 0xfc
    }
  /*-------------------------- USART BRR Configuration ---------------------*/
  if (huart->Init.OverSampling == UART_OVERSAMPLING_8)
 8002a86:	f8d7 30f4 	ldr.w	r3, [r7, #244]	; 0xf4
 8002a8a:	69db      	ldr	r3, [r3, #28]
 8002a8c:	f5b3 4f00 	cmp.w	r3, #32768	; 0x8000
 8002a90:	f040 810c 	bne.w	8002cac <UART_SetConfig+0x2d8>
  {
    huart->Instance->BRR = UART_BRR_SAMPLING8(pclk, huart->Init.BaudRate);
 8002a94:	f8d7 30fc 	ldr.w	r3, [r7, #252]	; 0xfc
 8002a98:	2200      	movs	r2, #0
 8002a9a:	f8c7 30e8 	str.w	r3, [r7, #232]	; 0xe8
 8002a9e:	f8c7 20ec 	str.w	r2, [r7, #236]	; 0xec
 8002aa2:	e9d7 453a 	ldrd	r4, r5, [r7, #232]	; 0xe8
 8002aa6:	4622      	mov	r2, r4
 8002aa8:	462b      	mov	r3, r5
 8002aaa:	1891      	adds	r1, r2, r2
 8002aac:	65b9      	str	r1, [r7, #88]	; 0x58
 8002aae:	415b      	adcs	r3, r3
 8002ab0:	65fb      	str	r3, [r7, #92]	; 0x5c
 8002ab2:	e9d7 2316 	ldrd	r2, r3, [r7, #88]	; 0x58
 8002ab6:	4621      	mov	r1, r4
 8002ab8:	eb12 0801 	adds.w	r8, r2, r1
 8002abc:	4629      	mov	r1, r5
 8002abe:	eb43 0901 	adc.w	r9, r3, r1
 8002ac2:	f04f 0200 	mov.w	r2, #0
 8002ac6:	f04f 0300 	mov.w	r3, #0
 8002aca:	ea4f 03c9 	mov.w	r3, r9, lsl #3
 8002ace:	ea43 7358 	orr.w	r3, r3, r8, lsr #29
 8002ad2:	ea4f 02c8 	mov.w	r2, r8, lsl #3
 8002ad6:	4690      	mov	r8, r2
 8002ad8:	4699      	mov	r9, r3
 8002ada:	4623      	mov	r3, r4
 8002adc:	eb18 0303 	adds.w	r3, r8, r3
 8002ae0:	f8c7 30e0 	str.w	r3, [r7, #224]	; 0xe0
 8002ae4:	462b      	mov	r3, r5
 8002ae6:	eb49 0303 	adc.w	r3, r9, r3
 8002aea:	f8c7 30e4 	str.w	r3, [r7, #228]	; 0xe4
 8002aee:	f8d7 30f4 	ldr.w	r3, [r7, #244]	; 0xf4
 8002af2:	685b      	ldr	r3, [r3, #4]
 8002af4:	2200      	movs	r2, #0
 8002af6:	f8c7 30d8 	str.w	r3, [r7, #216]	; 0xd8
 8002afa:	f8c7 20dc 	str.w	r2, [r7, #220]	; 0xdc
 8002afe:	e9d7 1236 	ldrd	r1, r2, [r7, #216]	; 0xd8
 8002b02:	460b      	mov	r3, r1
 8002b04:	18db      	adds	r3, r3, r3
 8002b06:	653b      	str	r3, [r7, #80]	; 0x50
 8002b08:	4613      	mov	r3, r2
 8002b0a:	eb42 0303 	adc.w	r3, r2, r3
 8002b0e:	657b      	str	r3, [r7, #84]	; 0x54
 8002b10:	e9d7 2314 	ldrd	r2, r3, [r7, #80]	; 0x50
 8002b14:	e9d7 0138 	ldrd	r0, r1, [r7, #224]	; 0xe0
 8002b18:	f7fd fb74 	bl	8000204 <__aeabi_uldivmod>
 8002b1c:	4602      	mov	r2, r0
 8002b1e:	460b      	mov	r3, r1
 8002b20:	4b61      	ldr	r3, [pc, #388]	; (8002ca8 <UART_SetConfig+0x2d4>)
 8002b22:	fba3 2302 	umull	r2, r3, r3, r2
 8002b26:	095b      	lsrs	r3, r3, #5
 8002b28:	011c      	lsls	r4, r3, #4
 8002b2a:	f8d7 30fc 	ldr.w	r3, [r7, #252]	; 0xfc
 8002b2e:	2200      	movs	r2, #0
 8002b30:	f8c7 30d0 	str.w	r3, [r7, #208]	; 0xd0
 8002b34:	f8c7 20d4 	str.w	r2, [r7, #212]	; 0xd4
 8002b38:	e9d7 8934 	ldrd	r8, r9, [r7, #208]	; 0xd0
 8002b3c:	4642      	mov	r2, r8
 8002b3e:	464b      	mov	r3, r9
 8002b40:	1891      	adds	r1, r2, r2
 8002b42:	64b9      	str	r1, [r7, #72]	; 0x48
 8002b44:	415b      	adcs	r3, r3
 8002b46:	64fb      	str	r3, [r7, #76]	; 0x4c
 8002b48:	e9d7 2312 	ldrd	r2, r3, [r7, #72]	; 0x48
 8002b4c:	4641      	mov	r1, r8
 8002b4e:	eb12 0a01 	adds.w	sl, r2, r1
 8002b52:	4649      	mov	r1, r9
 8002b54:	eb43 0b01 	adc.w	fp, r3, r1
 8002b58:	f04f 0200 	mov.w	r2, #0
 8002b5c:	f04f 0300 	mov.w	r3, #0
 8002b60:	ea4f 03cb 	mov.w	r3, fp, lsl #3
 8002b64:	ea43 735a 	orr.w	r3, r3, sl, lsr #29
 8002b68:	ea4f 02ca 	mov.w	r2, sl, lsl #3
 8002b6c:	4692      	mov	sl, r2
 8002b6e:	469b      	mov	fp, r3
 8002b70:	4643      	mov	r3, r8
 8002b72:	eb1a 0303 	adds.w	r3, sl, r3
 8002b76:	f8c7 30c8 	str.w	r3, [r7, #200]	; 0xc8
 8002b7a:	464b      	mov	r3, r9
 8002b7c:	eb4b 0303 	adc.w	r3, fp, r3
 8002b80:	f8c7 30cc 	str.w	r3, [r7, #204]	; 0xcc
 8002b84:	f8d7 30f4 	ldr.w	r3, [r7, #244]	; 0xf4
 8002b88:	685b      	ldr	r3, [r3, #4]
 8002b8a:	2200      	movs	r2, #0
 8002b8c:	f8c7 30c0 	str.w	r3, [r7, #192]	; 0xc0
 8002b90:	f8c7 20c4 	str.w	r2, [r7, #196]	; 0xc4
 8002b94:	e9d7 1230 	ldrd	r1, r2, [r7, #192]	; 0xc0
 8002b98:	460b      	mov	r3, r1
 8002b9a:	18db      	adds	r3, r3, r3
 8002b9c:	643b      	str	r3, [r7, #64]	; 0x40
 8002b9e:	4613      	mov	r3, r2
 8002ba0:	eb42 0303 	adc.w	r3, r2, r3
 8002ba4:	647b      	str	r3, [r7, #68]	; 0x44
 8002ba6:	e9d7 2310 	ldrd	r2, r3, [r7, #64]	; 0x40
 8002baa:	e9d7 0132 	ldrd	r0, r1, [r7, #200]	; 0xc8
 8002bae:	f7fd fb29 	bl	8000204 <__aeabi_uldivmod>
 8002bb2:	4602      	mov	r2, r0
 8002bb4:	460b      	mov	r3, r1
 8002bb6:	4611      	mov	r1, r2
 8002bb8:	4b3b      	ldr	r3, [pc, #236]	; (8002ca8 <UART_SetConfig+0x2d4>)
 8002bba:	fba3 2301 	umull	r2, r3, r3, r1
 8002bbe:	095b      	lsrs	r3, r3, #5
 8002bc0:	2264      	movs	r2, #100	; 0x64
 8002bc2:	fb02 f303 	mul.w	r3, r2, r3
 8002bc6:	1acb      	subs	r3, r1, r3
 8002bc8:	00db      	lsls	r3, r3, #3
 8002bca:	f103 0232 	add.w	r2, r3, #50	; 0x32
 8002bce:	4b36      	ldr	r3, [pc, #216]	; (8002ca8 <UART_SetConfig+0x2d4>)
 8002bd0:	fba3 2302 	umull	r2, r3, r3, r2
 8002bd4:	095b      	lsrs	r3, r3, #5
 8002bd6:	005b      	lsls	r3, r3, #1
 8002bd8:	f403 73f8 	and.w	r3, r3, #496	; 0x1f0
 8002bdc:	441c      	add	r4, r3
 8002bde:	f8d7 30fc 	ldr.w	r3, [r7, #252]	; 0xfc
 8002be2:	2200      	movs	r2, #0
 8002be4:	f8c7 30b8 	str.w	r3, [r7, #184]	; 0xb8
 8002be8:	f8c7 20bc 	str.w	r2, [r7, #188]	; 0xbc
 8002bec:	e9d7 892e 	ldrd	r8, r9, [r7, #184]	; 0xb8
 8002bf0:	4642      	mov	r2, r8
 8002bf2:	464b      	mov	r3, r9
 8002bf4:	1891      	adds	r1, r2, r2
 8002bf6:	63b9      	str	r1, [r7, #56]	; 0x38
 8002bf8:	415b      	adcs	r3, r3
 8002bfa:	63fb      	str	r3, [r7, #60]	; 0x3c
 8002bfc:	e9d7 230e 	ldrd	r2, r3, [r7, #56]	; 0x38
 8002c00:	4641      	mov	r1, r8
 8002c02:	1851      	adds	r1, r2, r1
 8002c04:	6339      	str	r1, [r7, #48]	; 0x30
 8002c06:	4649      	mov	r1, r9
 8002c08:	414b      	adcs	r3, r1
 8002c0a:	637b      	str	r3, [r7, #52]	; 0x34
 8002c0c:	f04f 0200 	mov.w	r2, #0
 8002c10:	f04f 0300 	mov.w	r3, #0
 8002c14:	e9d7 ab0c 	ldrd	sl, fp, [r7, #48]	; 0x30
 8002c18:	4659      	mov	r1, fp
 8002c1a:	00cb      	lsls	r3, r1, #3
 8002c1c:	4651      	mov	r1, sl
 8002c1e:	ea43 7351 	orr.w	r3, r3, r1, lsr #29
 8002c22:	4651      	mov	r1, sl
 8002c24:	00ca      	lsls	r2, r1, #3
 8002c26:	4610      	mov	r0, r2
 8002c28:	4619      	mov	r1, r3
 8002c2a:	4603      	mov	r3, r0
 8002c2c:	4642      	mov	r2, r8
 8002c2e:	189b      	adds	r3, r3, r2
 8002c30:	f8c7 30b0 	str.w	r3, [r7, #176]	; 0xb0
 8002c34:	464b      	mov	r3, r9
 8002c36:	460a      	mov	r2, r1
 8002c38:	eb42 0303 	adc.w	r3, r2, r3
 8002c3c:	f8c7 30b4 	str.w	r3, [r7, #180]	; 0xb4
 8002c40:	f8d7 30f4 	ldr.w	r3, [r7, #244]	; 0xf4
 8002c44:	685b      	ldr	r3, [r3, #4]
 8002c46:	2200      	movs	r2, #0
 8002c48:	f8c7 30a8 	str.w	r3, [r7, #168]	; 0xa8
 8002c4c:	f8c7 20ac 	str.w	r2, [r7, #172]	; 0xac
 8002c50:	e9d7 122a 	ldrd	r1, r2, [r7, #168]	; 0xa8
 8002c54:	460b      	mov	r3, r1
 8002c56:	18db      	adds	r3, r3, r3
 8002c58:	62bb      	str	r3, [r7, #40]	; 0x28
 8002c5a:	4613      	mov	r3, r2
 8002c5c:	eb42 0303 	adc.w	r3, r2, r3
 8002c60:	62fb      	str	r3, [r7, #44]	; 0x2c
 8002c62:	e9d7 230a 	ldrd	r2, r3, [r7, #40]	; 0x28
 8002c66:	e9d7 012c 	ldrd	r0, r1, [r7, #176]	; 0xb0
 8002c6a:	f7fd facb 	bl	8000204 <__aeabi_uldivmod>
 8002c6e:	4602      	mov	r2, r0
 8002c70:	460b      	mov	r3, r1
 8002c72:	4b0d      	ldr	r3, [pc, #52]	; (8002ca8 <UART_SetConfig+0x2d4>)
 8002c74:	fba3 1302 	umull	r1, r3, r3, r2
 8002c78:	095b      	lsrs	r3, r3, #5
 8002c7a:	2164      	movs	r1, #100	; 0x64
 8002c7c:	fb01 f303 	mul.w	r3, r1, r3
 8002c80:	1ad3      	subs	r3, r2, r3
 8002c82:	00db      	lsls	r3, r3, #3
 8002c84:	3332      	adds	r3, #50	; 0x32
 8002c86:	4a08      	ldr	r2, [pc, #32]	; (8002ca8 <UART_SetConfig+0x2d4>)
 8002c88:	fba2 2303 	umull	r2, r3, r2, r3
 8002c8c:	095b      	lsrs	r3, r3, #5
 8002c8e:	f003 0207 	and.w	r2, r3, #7
 8002c92:	f8d7 30f4 	ldr.w	r3, [r7, #244]	; 0xf4
 8002c96:	681b      	ldr	r3, [r3, #0]
 8002c98:	4422      	add	r2, r4
 8002c9a:	609a      	str	r2, [r3, #8]
  }
  else
  {
    huart->Instance->BRR = UART_BRR_SAMPLING16(pclk, huart->Init.BaudRate);
  }
}
 8002c9c:	e106      	b.n	8002eac <UART_SetConfig+0x4d8>
 8002c9e:	bf00      	nop
 8002ca0:	40011000 	.word	0x40011000
 8002ca4:	40011400 	.word	0x40011400
 8002ca8:	51eb851f 	.word	0x51eb851f
    huart->Instance->BRR = UART_BRR_SAMPLING16(pclk, huart->Init.BaudRate);
 8002cac:	f8d7 30fc 	ldr.w	r3, [r7, #252]	; 0xfc
 8002cb0:	2200      	movs	r2, #0
 8002cb2:	f8c7 30a0 	str.w	r3, [r7, #160]	; 0xa0
 8002cb6:	f8c7 20a4 	str.w	r2, [r7, #164]	; 0xa4
 8002cba:	e9d7 8928 	ldrd	r8, r9, [r7, #160]	; 0xa0
 8002cbe:	4642      	mov	r2, r8
 8002cc0:	464b      	mov	r3, r9
 8002cc2:	1891      	adds	r1, r2, r2
 8002cc4:	6239      	str	r1, [r7, #32]
 8002cc6:	415b      	adcs	r3, r3
 8002cc8:	627b      	str	r3, [r7, #36]	; 0x24
 8002cca:	e9d7 2308 	ldrd	r2, r3, [r7, #32]
 8002cce:	4641      	mov	r1, r8
 8002cd0:	1854      	adds	r4, r2, r1
 8002cd2:	4649      	mov	r1, r9
 8002cd4:	eb43 0501 	adc.w	r5, r3, r1
 8002cd8:	f04f 0200 	mov.w	r2, #0
 8002cdc:	f04f 0300 	mov.w	r3, #0
 8002ce0:	00eb      	lsls	r3, r5, #3
 8002ce2:	ea43 7354 	orr.w	r3, r3, r4, lsr #29
 8002ce6:	00e2      	lsls	r2, r4, #3
 8002ce8:	4614      	mov	r4, r2
 8002cea:	461d      	mov	r5, r3
 8002cec:	4643      	mov	r3, r8
 8002cee:	18e3      	adds	r3, r4, r3
 8002cf0:	f8c7 3098 	str.w	r3, [r7, #152]	; 0x98
 8002cf4:	464b      	mov	r3, r9
 8002cf6:	eb45 0303 	adc.w	r3, r5, r3
 8002cfa:	f8c7 309c 	str.w	r3, [r7, #156]	; 0x9c
 8002cfe:	f8d7 30f4 	ldr.w	r3, [r7, #244]	; 0xf4
 8002d02:	685b      	ldr	r3, [r3, #4]
 8002d04:	2200      	movs	r2, #0
 8002d06:	f8c7 3090 	str.w	r3, [r7, #144]	; 0x90
 8002d0a:	f8c7 2094 	str.w	r2, [r7, #148]	; 0x94
 8002d0e:	f04f 0200 	mov.w	r2, #0
 8002d12:	f04f 0300 	mov.w	r3, #0
 8002d16:	e9d7 4524 	ldrd	r4, r5, [r7, #144]	; 0x90
 8002d1a:	4629      	mov	r1, r5
 8002d1c:	008b      	lsls	r3, r1, #2
 8002d1e:	4621      	mov	r1, r4
 8002d20:	ea43 7391 	orr.w	r3, r3, r1, lsr #30
 8002d24:	4621      	mov	r1, r4
 8002d26:	008a      	lsls	r2, r1, #2
 8002d28:	e9d7 0126 	ldrd	r0, r1, [r7, #152]	; 0x98
 8002d2c:	f7fd fa6a 	bl	8000204 <__aeabi_uldivmod>
 8002d30:	4602      	mov	r2, r0
 8002d32:	460b      	mov	r3, r1
 8002d34:	4b60      	ldr	r3, [pc, #384]	; (8002eb8 <UART_SetConfig+0x4e4>)
 8002d36:	fba3 2302 	umull	r2, r3, r3, r2
 8002d3a:	095b      	lsrs	r3, r3, #5
 8002d3c:	011c      	lsls	r4, r3, #4
 8002d3e:	f8d7 30fc 	ldr.w	r3, [r7, #252]	; 0xfc
 8002d42:	2200      	movs	r2, #0
 8002d44:	f8c7 3088 	str.w	r3, [r7, #136]	; 0x88
 8002d48:	f8c7 208c 	str.w	r2, [r7, #140]	; 0x8c
 8002d4c:	e9d7 8922 	ldrd	r8, r9, [r7, #136]	; 0x88
 8002d50:	4642      	mov	r2, r8
 8002d52:	464b      	mov	r3, r9
 8002d54:	1891      	adds	r1, r2, r2
 8002d56:	61b9      	str	r1, [r7, #24]
 8002d58:	415b      	adcs	r3, r3
 8002d5a:	61fb      	str	r3, [r7, #28]
 8002d5c:	e9d7 2306 	ldrd	r2, r3, [r7, #24]
 8002d60:	4641      	mov	r1, r8
 8002d62:	1851      	adds	r1, r2, r1
 8002d64:	6139      	str	r1, [r7, #16]
 8002d66:	4649      	mov	r1, r9
 8002d68:	414b      	adcs	r3, r1
 8002d6a:	617b      	str	r3, [r7, #20]
 8002d6c:	f04f 0200 	mov.w	r2, #0
 8002d70:	f04f 0300 	mov.w	r3, #0
 8002d74:	e9d7 ab04 	ldrd	sl, fp, [r7, #16]
 8002d78:	4659      	mov	r1, fp
 8002d7a:	00cb      	lsls	r3, r1, #3
 8002d7c:	4651      	mov	r1, sl
 8002d7e:	ea43 7351 	orr.w	r3, r3, r1, lsr #29
 8002d82:	4651      	mov	r1, sl
 8002d84:	00ca      	lsls	r2, r1, #3
 8002d86:	4610      	mov	r0, r2
 8002d88:	4619      	mov	r1, r3
 8002d8a:	4603      	mov	r3, r0
 8002d8c:	4642      	mov	r2, r8
 8002d8e:	189b      	adds	r3, r3, r2
 8002d90:	f8c7 3080 	str.w	r3, [r7, #128]	; 0x80
 8002d94:	464b      	mov	r3, r9
 8002d96:	460a      	mov	r2, r1
 8002d98:	eb42 0303 	adc.w	r3, r2, r3
 8002d9c:	f8c7 3084 	str.w	r3, [r7, #132]	; 0x84
 8002da0:	f8d7 30f4 	ldr.w	r3, [r7, #244]	; 0xf4
 8002da4:	685b      	ldr	r3, [r3, #4]
 8002da6:	2200      	movs	r2, #0
 8002da8:	67bb      	str	r3, [r7, #120]	; 0x78
 8002daa:	67fa      	str	r2, [r7, #124]	; 0x7c
 8002dac:	f04f 0200 	mov.w	r2, #0
 8002db0:	f04f 0300 	mov.w	r3, #0
 8002db4:	e9d7 891e 	ldrd	r8, r9, [r7, #120]	; 0x78
 8002db8:	4649      	mov	r1, r9
 8002dba:	008b      	lsls	r3, r1, #2
 8002dbc:	4641      	mov	r1, r8
 8002dbe:	ea43 7391 	orr.w	r3, r3, r1, lsr #30
 8002dc2:	4641      	mov	r1, r8
 8002dc4:	008a      	lsls	r2, r1, #2
 8002dc6:	e9d7 0120 	ldrd	r0, r1, [r7, #128]	; 0x80
 8002dca:	f7fd fa1b 	bl	8000204 <__aeabi_uldivmod>
 8002dce:	4602      	mov	r2, r0
 8002dd0:	460b      	mov	r3, r1
 8002dd2:	4611      	mov	r1, r2
 8002dd4:	4b38      	ldr	r3, [pc, #224]	; (8002eb8 <UART_SetConfig+0x4e4>)
 8002dd6:	fba3 2301 	umull	r2, r3, r3, r1
 8002dda:	095b      	lsrs	r3, r3, #5
 8002ddc:	2264      	movs	r2, #100	; 0x64
 8002dde:	fb02 f303 	mul.w	r3, r2, r3
 8002de2:	1acb      	subs	r3, r1, r3
 8002de4:	011b      	lsls	r3, r3, #4
 8002de6:	3332      	adds	r3, #50	; 0x32
 8002de8:	4a33      	ldr	r2, [pc, #204]	; (8002eb8 <UART_SetConfig+0x4e4>)
 8002dea:	fba2 2303 	umull	r2, r3, r2, r3
 8002dee:	095b      	lsrs	r3, r3, #5
 8002df0:	f003 03f0 	and.w	r3, r3, #240	; 0xf0
 8002df4:	441c      	add	r4, r3
 8002df6:	f8d7 30fc 	ldr.w	r3, [r7, #252]	; 0xfc
 8002dfa:	2200      	movs	r2, #0
 8002dfc:	673b      	str	r3, [r7, #112]	; 0x70
 8002dfe:	677a      	str	r2, [r7, #116]	; 0x74
 8002e00:	e9d7 891c 	ldrd	r8, r9, [r7, #112]	; 0x70
 8002e04:	4642      	mov	r2, r8
 8002e06:	464b      	mov	r3, r9
 8002e08:	1891      	adds	r1, r2, r2
 8002e0a:	60b9      	str	r1, [r7, #8]
 8002e0c:	415b      	adcs	r3, r3
 8002e0e:	60fb      	str	r3, [r7, #12]
 8002e10:	e9d7 2302 	ldrd	r2, r3, [r7, #8]
 8002e14:	4641      	mov	r1, r8
 8002e16:	1851      	adds	r1, r2, r1
 8002e18:	6039      	str	r1, [r7, #0]
 8002e1a:	4649      	mov	r1, r9
 8002e1c:	414b      	adcs	r3, r1
 8002e1e:	607b      	str	r3, [r7, #4]
 8002e20:	f04f 0200 	mov.w	r2, #0
 8002e24:	f04f 0300 	mov.w	r3, #0
 8002e28:	e9d7 ab00 	ldrd	sl, fp, [r7]
 8002e2c:	4659      	mov	r1, fp
 8002e2e:	00cb      	lsls	r3, r1, #3
 8002e30:	4651      	mov	r1, sl
 8002e32:	ea43 7351 	orr.w	r3, r3, r1, lsr #29
 8002e36:	4651      	mov	r1, sl
 8002e38:	00ca      	lsls	r2, r1, #3
 8002e3a:	4610      	mov	r0, r2
 8002e3c:	4619      	mov	r1, r3
 8002e3e:	4603      	mov	r3, r0
 8002e40:	4642      	mov	r2, r8
 8002e42:	189b      	adds	r3, r3, r2
 8002e44:	66bb      	str	r3, [r7, #104]	; 0x68
 8002e46:	464b      	mov	r3, r9
 8002e48:	460a      	mov	r2, r1
 8002e4a:	eb42 0303 	adc.w	r3, r2, r3
 8002e4e:	66fb      	str	r3, [r7, #108]	; 0x6c
 8002e50:	f8d7 30f4 	ldr.w	r3, [r7, #244]	; 0xf4
 8002e54:	685b      	ldr	r3, [r3, #4]
 8002e56:	2200      	movs	r2, #0
 8002e58:	663b      	str	r3, [r7, #96]	; 0x60
 8002e5a:	667a      	str	r2, [r7, #100]	; 0x64
 8002e5c:	f04f 0200 	mov.w	r2, #0
 8002e60:	f04f 0300 	mov.w	r3, #0
 8002e64:	e9d7 8918 	ldrd	r8, r9, [r7, #96]	; 0x60
 8002e68:	4649      	mov	r1, r9
 8002e6a:	008b      	lsls	r3, r1, #2
 8002e6c:	4641      	mov	r1, r8
 8002e6e:	ea43 7391 	orr.w	r3, r3, r1, lsr #30
 8002e72:	4641      	mov	r1, r8
 8002e74:	008a      	lsls	r2, r1, #2
 8002e76:	e9d7 011a 	ldrd	r0, r1, [r7, #104]	; 0x68
 8002e7a:	f7fd f9c3 	bl	8000204 <__aeabi_uldivmod>
 8002e7e:	4602      	mov	r2, r0
 8002e80:	460b      	mov	r3, r1
 8002e82:	4b0d      	ldr	r3, [pc, #52]	; (8002eb8 <UART_SetConfig+0x4e4>)
 8002e84:	fba3 1302 	umull	r1, r3, r3, r2
 8002e88:	095b      	lsrs	r3, r3, #5
 8002e8a:	2164      	movs	r1, #100	; 0x64
 8002e8c:	fb01 f303 	mul.w	r3, r1, r3
 8002e90:	1ad3      	subs	r3, r2, r3
 8002e92:	011b      	lsls	r3, r3, #4
 8002e94:	3332      	adds	r3, #50	; 0x32
 8002e96:	4a08      	ldr	r2, [pc, #32]	; (8002eb8 <UART_SetConfig+0x4e4>)
 8002e98:	fba2 2303 	umull	r2, r3, r2, r3
 8002e9c:	095b      	lsrs	r3, r3, #5
 8002e9e:	f003 020f 	and.w	r2, r3, #15
 8002ea2:	f8d7 30f4 	ldr.w	r3, [r7, #244]	; 0xf4
 8002ea6:	681b      	ldr	r3, [r3, #0]
 8002ea8:	4422      	add	r2, r4
 8002eaa:	609a      	str	r2, [r3, #8]
}
 8002eac:	bf00      	nop
 8002eae:	f507 7780 	add.w	r7, r7, #256	; 0x100
 8002eb2:	46bd      	mov	sp, r7
 8002eb4:	e8bd 8fb0 	ldmia.w	sp!, {r4, r5, r7, r8, r9, sl, fp, pc}
 8002eb8:	51eb851f 	.word	0x51eb851f

08002ebc <memset>:
 8002ebc:	4402      	add	r2, r0
 8002ebe:	4603      	mov	r3, r0
 8002ec0:	4293      	cmp	r3, r2
 8002ec2:	d100      	bne.n	8002ec6 <memset+0xa>
 8002ec4:	4770      	bx	lr
 8002ec6:	f803 1b01 	strb.w	r1, [r3], #1
 8002eca:	e7f9      	b.n	8002ec0 <memset+0x4>

08002ecc <__libc_init_array>:
 8002ecc:	b570      	push	{r4, r5, r6, lr}
 8002ece:	4d0d      	ldr	r5, [pc, #52]	; (8002f04 <__libc_init_array+0x38>)
 8002ed0:	4c0d      	ldr	r4, [pc, #52]	; (8002f08 <__libc_init_array+0x3c>)
 8002ed2:	1b64      	subs	r4, r4, r5
 8002ed4:	10a4      	asrs	r4, r4, #2
 8002ed6:	2600      	movs	r6, #0
 8002ed8:	42a6      	cmp	r6, r4
 8002eda:	d109      	bne.n	8002ef0 <__libc_init_array+0x24>
 8002edc:	4d0b      	ldr	r5, [pc, #44]	; (8002f0c <__libc_init_array+0x40>)
 8002ede:	4c0c      	ldr	r4, [pc, #48]	; (8002f10 <__libc_init_array+0x44>)
 8002ee0:	f000 f818 	bl	8002f14 <_init>
 8002ee4:	1b64      	subs	r4, r4, r5
 8002ee6:	10a4      	asrs	r4, r4, #2
 8002ee8:	2600      	movs	r6, #0
 8002eea:	42a6      	cmp	r6, r4
 8002eec:	d105      	bne.n	8002efa <__libc_init_array+0x2e>
 8002eee:	bd70      	pop	{r4, r5, r6, pc}
 8002ef0:	f855 3b04 	ldr.w	r3, [r5], #4
 8002ef4:	4798      	blx	r3
 8002ef6:	3601      	adds	r6, #1
 8002ef8:	e7ee      	b.n	8002ed8 <__libc_init_array+0xc>
 8002efa:	f855 3b04 	ldr.w	r3, [r5], #4
 8002efe:	4798      	blx	r3
 8002f00:	3601      	adds	r6, #1
 8002f02:	e7f2      	b.n	8002eea <__libc_init_array+0x1e>
 8002f04:	08002f4c 	.word	0x08002f4c
 8002f08:	08002f4c 	.word	0x08002f4c
 8002f0c:	08002f4c 	.word	0x08002f4c
 8002f10:	08002f50 	.word	0x08002f50

08002f14 <_init>:
 8002f14:	b5f8      	push	{r3, r4, r5, r6, r7, lr}
 8002f16:	bf00      	nop
 8002f18:	bcf8      	pop	{r3, r4, r5, r6, r7}
 8002f1a:	bc08      	pop	{r3}
 8002f1c:	469e      	mov	lr, r3
 8002f1e:	4770      	bx	lr

08002f20 <_fini>:
 8002f20:	b5f8      	push	{r3, r4, r5, r6, r7, lr}
 8002f22:	bf00      	nop
 8002f24:	bcf8      	pop	{r3, r4, r5, r6, r7}
 8002f26:	bc08      	pop	{r3}
 8002f28:	469e      	mov	lr, r3
 8002f2a:	4770      	bx	lr
